

Microchip MPLAB XC8 Assembler V2.41 build 20230208172133 
                                                                                               Tue May 23 10:28:54 2023

Microchip MPLAB XC8 C Compiler v2.41 (Free license) build 20230208172133 Og1 
     1                           	processor	16F15244
     2                           	pagewidth 120
     3                           	opt	flic
     4                           	psect	stringtext1,global,class=STRCODE,delta=2,noexec
     5                           	psect	nvCOMMON,global,class=COMMON,space=1,delta=1,noexec
     6                           	psect	cinit,global,class=CODE,merge=1,delta=2
     7                           	psect	bssCOMMON,global,class=COMMON,space=1,delta=1,noexec
     8                           	psect	cstackCOMMON,global,class=COMMON,space=1,delta=1,noexec
     9                           	psect	maintext,global,class=CODE,merge=1,split=1,delta=2
    10                           	psect	text1,local,class=CODE,merge=1,delta=2
    11                           	psect	text2,local,class=CODE,merge=1,delta=2
    12                           	psect	text3,local,class=CODE,merge=1,delta=2
    13                           	psect	text4,local,class=CODE,merge=1,delta=2
    14                           	psect	text5,local,class=CODE,merge=1,delta=2
    15                           	psect	text6,local,class=CODE,merge=1,delta=2
    16                           	psect	text7,local,class=CODE,merge=1,delta=2
    17                           	psect	intentry,global,class=CODE,delta=2
    18                           	psect	text9,local,class=CODE,merge=1,delta=2
    19                           	psect	text10,local,class=CODE,merge=1,delta=2
    20                           	psect	text11,local,class=CODE,merge=1,delta=2
    21                           	psect	text12,local,class=CODE,merge=1,delta=2
    22                           	psect	config,global,abs,ovrld,class=CONFIG,space=4,delta=2,noexec
    23                           	dabs	1,0x7E,2
    24     0000                     
    25                           ; Generated 22/03/2023 GMT
    26                           ; 
    27                           ; Copyright © 2023, Microchip Technology Inc. and its subsidiaries ("Microchip")
    28                           ; All rights reserved.
    29                           ; 
    30                           ; This software is developed by Microchip Technology Inc. and its subsidiaries ("Microch
      +                          ip").
    31                           ; 
    32                           ; Redistribution and use in source and binary forms, with or without modification, are
    33                           ; permitted provided that the following conditions are met:
    34                           ; 
    35                           ;     1. Redistributions of source code must retain the above copyright notice, this lis
      +                          t of
    36                           ;        conditions and the following disclaimer.
    37                           ; 
    38                           ;     2. Redistributions in binary form must reproduce the above copyright notice, this 
      +                          list
    39                           ;        of conditions and the following disclaimer in the documentation and/or other
    40                           ;        materials provided with the distribution. Publication is not required when
    41                           ;        this file is used in an embedded application.
    42                           ; 
    43                           ;     3. Microchip's name may not be used to endorse or promote products derived from th
      +                          is
    44                           ;        software without specific prior written permission.
    45                           ; 
    46                           ; THIS SOFTWARE IS PROVIDED BY MICROCHIP "AS IS" AND ANY EXPRESS OR IMPLIED WARRANTIES,
    47                           ; INCLUDING, BUT NOT LIMITED TO, THE IMPLIED WARRANTIES OF MERCHANTABILITY AND FITNESS F
      +                          OR
    48                           ; PURPOSE ARE DISCLAIMED.  IN NO EVENT SHALL MICROCHIP BE LIABLE FOR ANY DIRECT, INDIREC
      +                          T,
    49                           ; INCIDENTAL, SPECIAL, EXEMPLARY, OR CONSEQUENTIAL DAMAGES (INCLUDING BUT NOT LIMITED TO
    50                           ; PROCUREMENT OF SUBSTITUTE GOODS OR SERVICES; LOSS OF USE, DATA OR PROFITS; OR BUSINESS
    51                           ; INTERRUPTION) HOWSOEVER CAUSED AND ON ANY THEORY OF LIABILITY, WHETHER IN CONTRACT, ST
      +                          RICT
    52                           ; LIABILITY, OR TORT (INCLUDING NEGLIGENCE OR OTHERWISE) ARISING IN ANY WAY OUT OF THE U
      +                          SE OF
    53                           ; THIS SOFTWARE, EVEN IF ADVISED OF THE POSSIBILITY OF SUCH DAMAGE.
    54                           ; 
    55                           ; 
    56                           ; Code-generator required, PIC16F15244 Definitions
    57                           ; 
    58                           ; SFR Addresses
    59     0000                     	;# 
    60     0001                     	;# 
    61     0002                     	;# 
    62     0003                     	;# 
    63     0004                     	;# 
    64     0005                     	;# 
    65     0006                     	;# 
    66     0007                     	;# 
    67     0008                     	;# 
    68     0009                     	;# 
    69     000A                     	;# 
    70     000B                     	;# 
    71     000C                     	;# 
    72     000D                     	;# 
    73     000E                     	;# 
    74     0012                     	;# 
    75     0013                     	;# 
    76     0014                     	;# 
    77     0018                     	;# 
    78     0019                     	;# 
    79     001A                     	;# 
    80     009A                     	;# 
    81     009B                     	;# 
    82     009B                     	;# 
    83     009C                     	;# 
    84     009D                     	;# 
    85     009E                     	;# 
    86     009F                     	;# 
    87     010C                     	;# 
    88     010D                     	;# 
    89     0119                     	;# 
    90     011A                     	;# 
    91     011B                     	;# 
    92     011B                     	;# 
    93     011C                     	;# 
    94     011D                     	;# 
    95     011E                     	;# 
    96     011F                     	;# 
    97     018C                     	;# 
    98     018D                     	;# 
    99     018E                     	;# 
   100     018F                     	;# 
   101     0190                     	;# 
   102     0191                     	;# 
   103     0192                     	;# 
   104     020C                     	;# 
   105     020D                     	;# 
   106     020E                     	;# 
   107     020E                     	;# 
   108     020F                     	;# 
   109     020F                     	;# 
   110     0210                     	;# 
   111     0210                     	;# 
   112     0211                     	;# 
   113     0211                     	;# 
   114     028C                     	;# 
   115     028C                     	;# 
   116     028D                     	;# 
   117     028D                     	;# 
   118     028E                     	;# 
   119     028F                     	;# 
   120     0290                     	;# 
   121     0291                     	;# 
   122     030C                     	;# 
   123     030C                     	;# 
   124     030D                     	;# 
   125     030E                     	;# 
   126     030F                     	;# 
   127     0310                     	;# 
   128     0310                     	;# 
   129     0311                     	;# 
   130     0312                     	;# 
   131     0313                     	;# 
   132     0314                     	;# 
   133     0314                     	;# 
   134     0315                     	;# 
   135     0316                     	;# 
   136     0318                     	;# 
   137     0318                     	;# 
   138     0319                     	;# 
   139     031A                     	;# 
   140     059C                     	;# 
   141     059C                     	;# 
   142     059D                     	;# 
   143     059D                     	;# 
   144     059E                     	;# 
   145     059F                     	;# 
   146     070C                     	;# 
   147     070D                     	;# 
   148     070E                     	;# 
   149     0716                     	;# 
   150     0717                     	;# 
   151     0718                     	;# 
   152     080C                     	;# 
   153     0811                     	;# 
   154     0813                     	;# 
   155     0814                     	;# 
   156     081A                     	;# 
   157     081A                     	;# 
   158     081B                     	;# 
   159     081C                     	;# 
   160     081C                     	;# 
   161     081D                     	;# 
   162     081E                     	;# 
   163     081F                     	;# 
   164     088E                     	;# 
   165     0890                     	;# 
   166     0891                     	;# 
   167     0892                     	;# 
   168     0893                     	;# 
   169     090C                     	;# 
   170     1E8F                     	;# 
   171     1E90                     	;# 
   172     1E91                     	;# 
   173     1E92                     	;# 
   174     1E93                     	;# 
   175     1E9C                     	;# 
   176     1EA1                     	;# 
   177     1EA2                     	;# 
   178     1EC3                     	;# 
   179     1EC5                     	;# 
   180     1EC6                     	;# 
   181     1EC7                     	;# 
   182     1ECB                     	;# 
   183     1ECB                     	;# 
   184     1ECB                     	;# 
   185     1ECC                     	;# 
   186     1ECC                     	;# 
   187     1ECC                     	;# 
   188     1F10                     	;# 
   189     1F11                     	;# 
   190     1F12                     	;# 
   191     1F14                     	;# 
   192     1F15                     	;# 
   193     1F1C                     	;# 
   194     1F1D                     	;# 
   195     1F1E                     	;# 
   196     1F1F                     	;# 
   197     1F20                     	;# 
   198     1F21                     	;# 
   199     1F22                     	;# 
   200     1F23                     	;# 
   201     1F24                     	;# 
   202     1F25                     	;# 
   203     1F26                     	;# 
   204     1F27                     	;# 
   205     1F38                     	;# 
   206     1F39                     	;# 
   207     1F3A                     	;# 
   208     1F3B                     	;# 
   209     1F3C                     	;# 
   210     1F3D                     	;# 
   211     1F3E                     	;# 
   212     1F3F                     	;# 
   213     1F43                     	;# 
   214     1F44                     	;# 
   215     1F45                     	;# 
   216     1F46                     	;# 
   217     1F47                     	;# 
   218     1F48                     	;# 
   219     1F49                     	;# 
   220     1F4A                     	;# 
   221     1F4E                     	;# 
   222     1F4F                     	;# 
   223     1F50                     	;# 
   224     1F51                     	;# 
   225     1F52                     	;# 
   226     1F53                     	;# 
   227     1F54                     	;# 
   228     1F55                     	;# 
   229     1FE4                     	;# 
   230     1FE5                     	;# 
   231     1FE6                     	;# 
   232     1FE7                     	;# 
   233     1FE8                     	;# 
   234     1FE8                     	;# 
   235     1FE9                     	;# 
   236     1FEA                     	;# 
   237     1FEB                     	;# 
   238     1FED                     	;# 
   239     1FEE                     	;# 
   240     1FEF                     	;# 
   241     0000                     	;# 
   242     0001                     	;# 
   243     0002                     	;# 
   244     0003                     	;# 
   245     0004                     	;# 
   246     0005                     	;# 
   247     0006                     	;# 
   248     0007                     	;# 
   249     0008                     	;# 
   250     0009                     	;# 
   251     000A                     	;# 
   252     000B                     	;# 
   253     000C                     	;# 
   254     000D                     	;# 
   255     000E                     	;# 
   256     0012                     	;# 
   257     0013                     	;# 
   258     0014                     	;# 
   259     0018                     	;# 
   260     0019                     	;# 
   261     001A                     	;# 
   262     009A                     	;# 
   263     009B                     	;# 
   264     009B                     	;# 
   265     009C                     	;# 
   266     009D                     	;# 
   267     009E                     	;# 
   268     009F                     	;# 
   269     010C                     	;# 
   270     010D                     	;# 
   271     0119                     	;# 
   272     011A                     	;# 
   273     011B                     	;# 
   274     011B                     	;# 
   275     011C                     	;# 
   276     011D                     	;# 
   277     011E                     	;# 
   278     011F                     	;# 
   279     018C                     	;# 
   280     018D                     	;# 
   281     018E                     	;# 
   282     018F                     	;# 
   283     0190                     	;# 
   284     0191                     	;# 
   285     0192                     	;# 
   286     020C                     	;# 
   287     020D                     	;# 
   288     020E                     	;# 
   289     020E                     	;# 
   290     020F                     	;# 
   291     020F                     	;# 
   292     0210                     	;# 
   293     0210                     	;# 
   294     0211                     	;# 
   295     0211                     	;# 
   296     028C                     	;# 
   297     028C                     	;# 
   298     028D                     	;# 
   299     028D                     	;# 
   300     028E                     	;# 
   301     028F                     	;# 
   302     0290                     	;# 
   303     0291                     	;# 
   304     030C                     	;# 
   305     030C                     	;# 
   306     030D                     	;# 
   307     030E                     	;# 
   308     030F                     	;# 
   309     0310                     	;# 
   310     0310                     	;# 
   311     0311                     	;# 
   312     0312                     	;# 
   313     0313                     	;# 
   314     0314                     	;# 
   315     0314                     	;# 
   316     0315                     	;# 
   317     0316                     	;# 
   318     0318                     	;# 
   319     0318                     	;# 
   320     0319                     	;# 
   321     031A                     	;# 
   322     059C                     	;# 
   323     059C                     	;# 
   324     059D                     	;# 
   325     059D                     	;# 
   326     059E                     	;# 
   327     059F                     	;# 
   328     070C                     	;# 
   329     070D                     	;# 
   330     070E                     	;# 
   331     0716                     	;# 
   332     0717                     	;# 
   333     0718                     	;# 
   334     080C                     	;# 
   335     0811                     	;# 
   336     0813                     	;# 
   337     0814                     	;# 
   338     081A                     	;# 
   339     081A                     	;# 
   340     081B                     	;# 
   341     081C                     	;# 
   342     081C                     	;# 
   343     081D                     	;# 
   344     081E                     	;# 
   345     081F                     	;# 
   346     088E                     	;# 
   347     0890                     	;# 
   348     0891                     	;# 
   349     0892                     	;# 
   350     0893                     	;# 
   351     090C                     	;# 
   352     1E8F                     	;# 
   353     1E90                     	;# 
   354     1E91                     	;# 
   355     1E92                     	;# 
   356     1E93                     	;# 
   357     1E9C                     	;# 
   358     1EA1                     	;# 
   359     1EA2                     	;# 
   360     1EC3                     	;# 
   361     1EC5                     	;# 
   362     1EC6                     	;# 
   363     1EC7                     	;# 
   364     1ECB                     	;# 
   365     1ECB                     	;# 
   366     1ECB                     	;# 
   367     1ECC                     	;# 
   368     1ECC                     	;# 
   369     1ECC                     	;# 
   370     1F10                     	;# 
   371     1F11                     	;# 
   372     1F12                     	;# 
   373     1F14                     	;# 
   374     1F15                     	;# 
   375     1F1C                     	;# 
   376     1F1D                     	;# 
   377     1F1E                     	;# 
   378     1F1F                     	;# 
   379     1F20                     	;# 
   380     1F21                     	;# 
   381     1F22                     	;# 
   382     1F23                     	;# 
   383     1F24                     	;# 
   384     1F25                     	;# 
   385     1F26                     	;# 
   386     1F27                     	;# 
   387     1F38                     	;# 
   388     1F39                     	;# 
   389     1F3A                     	;# 
   390     1F3B                     	;# 
   391     1F3C                     	;# 
   392     1F3D                     	;# 
   393     1F3E                     	;# 
   394     1F3F                     	;# 
   395     1F43                     	;# 
   396     1F44                     	;# 
   397     1F45                     	;# 
   398     1F46                     	;# 
   399     1F47                     	;# 
   400     1F48                     	;# 
   401     1F49                     	;# 
   402     1F4A                     	;# 
   403     1F4E                     	;# 
   404     1F4F                     	;# 
   405     1F50                     	;# 
   406     1F51                     	;# 
   407     1F52                     	;# 
   408     1F53                     	;# 
   409     1F54                     	;# 
   410     1F55                     	;# 
   411     1FE4                     	;# 
   412     1FE5                     	;# 
   413     1FE6                     	;# 
   414     1FE7                     	;# 
   415     1FE8                     	;# 
   416     1FE8                     	;# 
   417     1FE9                     	;# 
   418     1FEA                     	;# 
   419     1FEB                     	;# 
   420     1FED                     	;# 
   421     1FEE                     	;# 
   422     1FEF                     	;# 
   423     0000                     	;# 
   424     0001                     	;# 
   425     0002                     	;# 
   426     0003                     	;# 
   427     0004                     	;# 
   428     0005                     	;# 
   429     0006                     	;# 
   430     0007                     	;# 
   431     0008                     	;# 
   432     0009                     	;# 
   433     000A                     	;# 
   434     000B                     	;# 
   435     000C                     	;# 
   436     000D                     	;# 
   437     000E                     	;# 
   438     0012                     	;# 
   439     0013                     	;# 
   440     0014                     	;# 
   441     0018                     	;# 
   442     0019                     	;# 
   443     001A                     	;# 
   444     009A                     	;# 
   445     009B                     	;# 
   446     009B                     	;# 
   447     009C                     	;# 
   448     009D                     	;# 
   449     009E                     	;# 
   450     009F                     	;# 
   451     010C                     	;# 
   452     010D                     	;# 
   453     0119                     	;# 
   454     011A                     	;# 
   455     011B                     	;# 
   456     011B                     	;# 
   457     011C                     	;# 
   458     011D                     	;# 
   459     011E                     	;# 
   460     011F                     	;# 
   461     018C                     	;# 
   462     018D                     	;# 
   463     018E                     	;# 
   464     018F                     	;# 
   465     0190                     	;# 
   466     0191                     	;# 
   467     0192                     	;# 
   468     020C                     	;# 
   469     020D                     	;# 
   470     020E                     	;# 
   471     020E                     	;# 
   472     020F                     	;# 
   473     020F                     	;# 
   474     0210                     	;# 
   475     0210                     	;# 
   476     0211                     	;# 
   477     0211                     	;# 
   478     028C                     	;# 
   479     028C                     	;# 
   480     028D                     	;# 
   481     028D                     	;# 
   482     028E                     	;# 
   483     028F                     	;# 
   484     0290                     	;# 
   485     0291                     	;# 
   486     030C                     	;# 
   487     030C                     	;# 
   488     030D                     	;# 
   489     030E                     	;# 
   490     030F                     	;# 
   491     0310                     	;# 
   492     0310                     	;# 
   493     0311                     	;# 
   494     0312                     	;# 
   495     0313                     	;# 
   496     0314                     	;# 
   497     0314                     	;# 
   498     0315                     	;# 
   499     0316                     	;# 
   500     0318                     	;# 
   501     0318                     	;# 
   502     0319                     	;# 
   503     031A                     	;# 
   504     059C                     	;# 
   505     059C                     	;# 
   506     059D                     	;# 
   507     059D                     	;# 
   508     059E                     	;# 
   509     059F                     	;# 
   510     070C                     	;# 
   511     070D                     	;# 
   512     070E                     	;# 
   513     0716                     	;# 
   514     0717                     	;# 
   515     0718                     	;# 
   516     080C                     	;# 
   517     0811                     	;# 
   518     0813                     	;# 
   519     0814                     	;# 
   520     081A                     	;# 
   521     081A                     	;# 
   522     081B                     	;# 
   523     081C                     	;# 
   524     081C                     	;# 
   525     081D                     	;# 
   526     081E                     	;# 
   527     081F                     	;# 
   528     088E                     	;# 
   529     0890                     	;# 
   530     0891                     	;# 
   531     0892                     	;# 
   532     0893                     	;# 
   533     090C                     	;# 
   534     1E8F                     	;# 
   535     1E90                     	;# 
   536     1E91                     	;# 
   537     1E92                     	;# 
   538     1E93                     	;# 
   539     1E9C                     	;# 
   540     1EA1                     	;# 
   541     1EA2                     	;# 
   542     1EC3                     	;# 
   543     1EC5                     	;# 
   544     1EC6                     	;# 
   545     1EC7                     	;# 
   546     1ECB                     	;# 
   547     1ECB                     	;# 
   548     1ECB                     	;# 
   549     1ECC                     	;# 
   550     1ECC                     	;# 
   551     1ECC                     	;# 
   552     1F10                     	;# 
   553     1F11                     	;# 
   554     1F12                     	;# 
   555     1F14                     	;# 
   556     1F15                     	;# 
   557     1F1C                     	;# 
   558     1F1D                     	;# 
   559     1F1E                     	;# 
   560     1F1F                     	;# 
   561     1F20                     	;# 
   562     1F21                     	;# 
   563     1F22                     	;# 
   564     1F23                     	;# 
   565     1F24                     	;# 
   566     1F25                     	;# 
   567     1F26                     	;# 
   568     1F27                     	;# 
   569     1F38                     	;# 
   570     1F39                     	;# 
   571     1F3A                     	;# 
   572     1F3B                     	;# 
   573     1F3C                     	;# 
   574     1F3D                     	;# 
   575     1F3E                     	;# 
   576     1F3F                     	;# 
   577     1F43                     	;# 
   578     1F44                     	;# 
   579     1F45                     	;# 
   580     1F46                     	;# 
   581     1F47                     	;# 
   582     1F48                     	;# 
   583     1F49                     	;# 
   584     1F4A                     	;# 
   585     1F4E                     	;# 
   586     1F4F                     	;# 
   587     1F50                     	;# 
   588     1F51                     	;# 
   589     1F52                     	;# 
   590     1F53                     	;# 
   591     1F54                     	;# 
   592     1F55                     	;# 
   593     1FE4                     	;# 
   594     1FE5                     	;# 
   595     1FE6                     	;# 
   596     1FE7                     	;# 
   597     1FE8                     	;# 
   598     1FE8                     	;# 
   599     1FE9                     	;# 
   600     1FEA                     	;# 
   601     1FEB                     	;# 
   602     1FED                     	;# 
   603     1FEE                     	;# 
   604     1FEF                     	;# 
   605     0000                     	;# 
   606     0001                     	;# 
   607     0002                     	;# 
   608     0003                     	;# 
   609     0004                     	;# 
   610     0005                     	;# 
   611     0006                     	;# 
   612     0007                     	;# 
   613     0008                     	;# 
   614     0009                     	;# 
   615     000A                     	;# 
   616     000B                     	;# 
   617     000C                     	;# 
   618     000D                     	;# 
   619     000E                     	;# 
   620     0012                     	;# 
   621     0013                     	;# 
   622     0014                     	;# 
   623     0018                     	;# 
   624     0019                     	;# 
   625     001A                     	;# 
   626     009A                     	;# 
   627     009B                     	;# 
   628     009B                     	;# 
   629     009C                     	;# 
   630     009D                     	;# 
   631     009E                     	;# 
   632     009F                     	;# 
   633     010C                     	;# 
   634     010D                     	;# 
   635     0119                     	;# 
   636     011A                     	;# 
   637     011B                     	;# 
   638     011B                     	;# 
   639     011C                     	;# 
   640     011D                     	;# 
   641     011E                     	;# 
   642     011F                     	;# 
   643     018C                     	;# 
   644     018D                     	;# 
   645     018E                     	;# 
   646     018F                     	;# 
   647     0190                     	;# 
   648     0191                     	;# 
   649     0192                     	;# 
   650     020C                     	;# 
   651     020D                     	;# 
   652     020E                     	;# 
   653     020E                     	;# 
   654     020F                     	;# 
   655     020F                     	;# 
   656     0210                     	;# 
   657     0210                     	;# 
   658     0211                     	;# 
   659     0211                     	;# 
   660     028C                     	;# 
   661     028C                     	;# 
   662     028D                     	;# 
   663     028D                     	;# 
   664     028E                     	;# 
   665     028F                     	;# 
   666     0290                     	;# 
   667     0291                     	;# 
   668     030C                     	;# 
   669     030C                     	;# 
   670     030D                     	;# 
   671     030E                     	;# 
   672     030F                     	;# 
   673     0310                     	;# 
   674     0310                     	;# 
   675     0311                     	;# 
   676     0312                     	;# 
   677     0313                     	;# 
   678     0314                     	;# 
   679     0314                     	;# 
   680     0315                     	;# 
   681     0316                     	;# 
   682     0318                     	;# 
   683     0318                     	;# 
   684     0319                     	;# 
   685     031A                     	;# 
   686     059C                     	;# 
   687     059C                     	;# 
   688     059D                     	;# 
   689     059D                     	;# 
   690     059E                     	;# 
   691     059F                     	;# 
   692     070C                     	;# 
   693     070D                     	;# 
   694     070E                     	;# 
   695     0716                     	;# 
   696     0717                     	;# 
   697     0718                     	;# 
   698     080C                     	;# 
   699     0811                     	;# 
   700     0813                     	;# 
   701     0814                     	;# 
   702     081A                     	;# 
   703     081A                     	;# 
   704     081B                     	;# 
   705     081C                     	;# 
   706     081C                     	;# 
   707     081D                     	;# 
   708     081E                     	;# 
   709     081F                     	;# 
   710     088E                     	;# 
   711     0890                     	;# 
   712     0891                     	;# 
   713     0892                     	;# 
   714     0893                     	;# 
   715     090C                     	;# 
   716     1E8F                     	;# 
   717     1E90                     	;# 
   718     1E91                     	;# 
   719     1E92                     	;# 
   720     1E93                     	;# 
   721     1E9C                     	;# 
   722     1EA1                     	;# 
   723     1EA2                     	;# 
   724     1EC3                     	;# 
   725     1EC5                     	;# 
   726     1EC6                     	;# 
   727     1EC7                     	;# 
   728     1ECB                     	;# 
   729     1ECB                     	;# 
   730     1ECB                     	;# 
   731     1ECC                     	;# 
   732     1ECC                     	;# 
   733     1ECC                     	;# 
   734     1F10                     	;# 
   735     1F11                     	;# 
   736     1F12                     	;# 
   737     1F14                     	;# 
   738     1F15                     	;# 
   739     1F1C                     	;# 
   740     1F1D                     	;# 
   741     1F1E                     	;# 
   742     1F1F                     	;# 
   743     1F20                     	;# 
   744     1F21                     	;# 
   745     1F22                     	;# 
   746     1F23                     	;# 
   747     1F24                     	;# 
   748     1F25                     	;# 
   749     1F26                     	;# 
   750     1F27                     	;# 
   751     1F38                     	;# 
   752     1F39                     	;# 
   753     1F3A                     	;# 
   754     1F3B                     	;# 
   755     1F3C                     	;# 
   756     1F3D                     	;# 
   757     1F3E                     	;# 
   758     1F3F                     	;# 
   759     1F43                     	;# 
   760     1F44                     	;# 
   761     1F45                     	;# 
   762     1F46                     	;# 
   763     1F47                     	;# 
   764     1F48                     	;# 
   765     1F49                     	;# 
   766     1F4A                     	;# 
   767     1F4E                     	;# 
   768     1F4F                     	;# 
   769     1F50                     	;# 
   770     1F51                     	;# 
   771     1F52                     	;# 
   772     1F53                     	;# 
   773     1F54                     	;# 
   774     1F55                     	;# 
   775     1FE4                     	;# 
   776     1FE5                     	;# 
   777     1FE6                     	;# 
   778     1FE7                     	;# 
   779     1FE8                     	;# 
   780     1FE8                     	;# 
   781     1FE9                     	;# 
   782     1FEA                     	;# 
   783     1FEB                     	;# 
   784     1FED                     	;# 
   785     1FEE                     	;# 
   786     1FEF                     	;# 
   787     0000                     	;# 
   788     0001                     	;# 
   789     0002                     	;# 
   790     0003                     	;# 
   791     0004                     	;# 
   792     0005                     	;# 
   793     0006                     	;# 
   794     0007                     	;# 
   795     0008                     	;# 
   796     0009                     	;# 
   797     000A                     	;# 
   798     000B                     	;# 
   799     000C                     	;# 
   800     000D                     	;# 
   801     000E                     	;# 
   802     0012                     	;# 
   803     0013                     	;# 
   804     0014                     	;# 
   805     0018                     	;# 
   806     0019                     	;# 
   807     001A                     	;# 
   808     009A                     	;# 
   809     009B                     	;# 
   810     009B                     	;# 
   811     009C                     	;# 
   812     009D                     	;# 
   813     009E                     	;# 
   814     009F                     	;# 
   815     010C                     	;# 
   816     010D                     	;# 
   817     0119                     	;# 
   818     011A                     	;# 
   819     011B                     	;# 
   820     011B                     	;# 
   821     011C                     	;# 
   822     011D                     	;# 
   823     011E                     	;# 
   824     011F                     	;# 
   825     018C                     	;# 
   826     018D                     	;# 
   827     018E                     	;# 
   828     018F                     	;# 
   829     0190                     	;# 
   830     0191                     	;# 
   831     0192                     	;# 
   832     020C                     	;# 
   833     020D                     	;# 
   834     020E                     	;# 
   835     020E                     	;# 
   836     020F                     	;# 
   837     020F                     	;# 
   838     0210                     	;# 
   839     0210                     	;# 
   840     0211                     	;# 
   841     0211                     	;# 
   842     028C                     	;# 
   843     028C                     	;# 
   844     028D                     	;# 
   845     028D                     	;# 
   846     028E                     	;# 
   847     028F                     	;# 
   848     0290                     	;# 
   849     0291                     	;# 
   850     030C                     	;# 
   851     030C                     	;# 
   852     030D                     	;# 
   853     030E                     	;# 
   854     030F                     	;# 
   855     0310                     	;# 
   856     0310                     	;# 
   857     0311                     	;# 
   858     0312                     	;# 
   859     0313                     	;# 
   860     0314                     	;# 
   861     0314                     	;# 
   862     0315                     	;# 
   863     0316                     	;# 
   864     0318                     	;# 
   865     0318                     	;# 
   866     0319                     	;# 
   867     031A                     	;# 
   868     059C                     	;# 
   869     059C                     	;# 
   870     059D                     	;# 
   871     059D                     	;# 
   872     059E                     	;# 
   873     059F                     	;# 
   874     070C                     	;# 
   875     070D                     	;# 
   876     070E                     	;# 
   877     0716                     	;# 
   878     0717                     	;# 
   879     0718                     	;# 
   880     080C                     	;# 
   881     0811                     	;# 
   882     0813                     	;# 
   883     0814                     	;# 
   884     081A                     	;# 
   885     081A                     	;# 
   886     081B                     	;# 
   887     081C                     	;# 
   888     081C                     	;# 
   889     081D                     	;# 
   890     081E                     	;# 
   891     081F                     	;# 
   892     088E                     	;# 
   893     0890                     	;# 
   894     0891                     	;# 
   895     0892                     	;# 
   896     0893                     	;# 
   897     090C                     	;# 
   898     1E8F                     	;# 
   899     1E90                     	;# 
   900     1E91                     	;# 
   901     1E92                     	;# 
   902     1E93                     	;# 
   903     1E9C                     	;# 
   904     1EA1                     	;# 
   905     1EA2                     	;# 
   906     1EC3                     	;# 
   907     1EC5                     	;# 
   908     1EC6                     	;# 
   909     1EC7                     	;# 
   910     1ECB                     	;# 
   911     1ECB                     	;# 
   912     1ECB                     	;# 
   913     1ECC                     	;# 
   914     1ECC                     	;# 
   915     1ECC                     	;# 
   916     1F10                     	;# 
   917     1F11                     	;# 
   918     1F12                     	;# 
   919     1F14                     	;# 
   920     1F15                     	;# 
   921     1F1C                     	;# 
   922     1F1D                     	;# 
   923     1F1E                     	;# 
   924     1F1F                     	;# 
   925     1F20                     	;# 
   926     1F21                     	;# 
   927     1F22                     	;# 
   928     1F23                     	;# 
   929     1F24                     	;# 
   930     1F25                     	;# 
   931     1F26                     	;# 
   932     1F27                     	;# 
   933     1F38                     	;# 
   934     1F39                     	;# 
   935     1F3A                     	;# 
   936     1F3B                     	;# 
   937     1F3C                     	;# 
   938     1F3D                     	;# 
   939     1F3E                     	;# 
   940     1F3F                     	;# 
   941     1F43                     	;# 
   942     1F44                     	;# 
   943     1F45                     	;# 
   944     1F46                     	;# 
   945     1F47                     	;# 
   946     1F48                     	;# 
   947     1F49                     	;# 
   948     1F4A                     	;# 
   949     1F4E                     	;# 
   950     1F4F                     	;# 
   951     1F50                     	;# 
   952     1F51                     	;# 
   953     1F52                     	;# 
   954     1F53                     	;# 
   955     1F54                     	;# 
   956     1F55                     	;# 
   957     1FE4                     	;# 
   958     1FE5                     	;# 
   959     1FE6                     	;# 
   960     1FE7                     	;# 
   961     1FE8                     	;# 
   962     1FE8                     	;# 
   963     1FE9                     	;# 
   964     1FEA                     	;# 
   965     1FEB                     	;# 
   966     1FED                     	;# 
   967     1FEE                     	;# 
   968     1FEF                     	;# 
   969     0000                     	;# 
   970     0001                     	;# 
   971     0002                     	;# 
   972     0003                     	;# 
   973     0004                     	;# 
   974     0005                     	;# 
   975     0006                     	;# 
   976     0007                     	;# 
   977     0008                     	;# 
   978     0009                     	;# 
   979     000A                     	;# 
   980     000B                     	;# 
   981     000C                     	;# 
   982     000D                     	;# 
   983     000E                     	;# 
   984     0012                     	;# 
   985     0013                     	;# 
   986     0014                     	;# 
   987     0018                     	;# 
   988     0019                     	;# 
   989     001A                     	;# 
   990     009A                     	;# 
   991     009B                     	;# 
   992     009B                     	;# 
   993     009C                     	;# 
   994     009D                     	;# 
   995     009E                     	;# 
   996     009F                     	;# 
   997     010C                     	;# 
   998     010D                     	;# 
   999     0119                     	;# 
  1000     011A                     	;# 
  1001     011B                     	;# 
  1002     011B                     	;# 
  1003     011C                     	;# 
  1004     011D                     	;# 
  1005     011E                     	;# 
  1006     011F                     	;# 
  1007     018C                     	;# 
  1008     018D                     	;# 
  1009     018E                     	;# 
  1010     018F                     	;# 
  1011     0190                     	;# 
  1012     0191                     	;# 
  1013     0192                     	;# 
  1014     020C                     	;# 
  1015     020D                     	;# 
  1016     020E                     	;# 
  1017     020E                     	;# 
  1018     020F                     	;# 
  1019     020F                     	;# 
  1020     0210                     	;# 
  1021     0210                     	;# 
  1022     0211                     	;# 
  1023     0211                     	;# 
  1024     028C                     	;# 
  1025     028C                     	;# 
  1026     028D                     	;# 
  1027     028D                     	;# 
  1028     028E                     	;# 
  1029     028F                     	;# 
  1030     0290                     	;# 
  1031     0291                     	;# 
  1032     030C                     	;# 
  1033     030C                     	;# 
  1034     030D                     	;# 
  1035     030E                     	;# 
  1036     030F                     	;# 
  1037     0310                     	;# 
  1038     0310                     	;# 
  1039     0311                     	;# 
  1040     0312                     	;# 
  1041     0313                     	;# 
  1042     0314                     	;# 
  1043     0314                     	;# 
  1044     0315                     	;# 
  1045     0316                     	;# 
  1046     0318                     	;# 
  1047     0318                     	;# 
  1048     0319                     	;# 
  1049     031A                     	;# 
  1050     059C                     	;# 
  1051     059C                     	;# 
  1052     059D                     	;# 
  1053     059D                     	;# 
  1054     059E                     	;# 
  1055     059F                     	;# 
  1056     070C                     	;# 
  1057     070D                     	;# 
  1058     070E                     	;# 
  1059     0716                     	;# 
  1060     0717                     	;# 
  1061     0718                     	;# 
  1062     080C                     	;# 
  1063     0811                     	;# 
  1064     0813                     	;# 
  1065     0814                     	;# 
  1066     081A                     	;# 
  1067     081A                     	;# 
  1068     081B                     	;# 
  1069     081C                     	;# 
  1070     081C                     	;# 
  1071     081D                     	;# 
  1072     081E                     	;# 
  1073     081F                     	;# 
  1074     088E                     	;# 
  1075     0890                     	;# 
  1076     0891                     	;# 
  1077     0892                     	;# 
  1078     0893                     	;# 
  1079     090C                     	;# 
  1080     1E8F                     	;# 
  1081     1E90                     	;# 
  1082     1E91                     	;# 
  1083     1E92                     	;# 
  1084     1E93                     	;# 
  1085     1E9C                     	;# 
  1086     1EA1                     	;# 
  1087     1EA2                     	;# 
  1088     1EC3                     	;# 
  1089     1EC5                     	;# 
  1090     1EC6                     	;# 
  1091     1EC7                     	;# 
  1092     1ECB                     	;# 
  1093     1ECB                     	;# 
  1094     1ECB                     	;# 
  1095     1ECC                     	;# 
  1096     1ECC                     	;# 
  1097     1ECC                     	;# 
  1098     1F10                     	;# 
  1099     1F11                     	;# 
  1100     1F12                     	;# 
  1101     1F14                     	;# 
  1102     1F15                     	;# 
  1103     1F1C                     	;# 
  1104     1F1D                     	;# 
  1105     1F1E                     	;# 
  1106     1F1F                     	;# 
  1107     1F20                     	;# 
  1108     1F21                     	;# 
  1109     1F22                     	;# 
  1110     1F23                     	;# 
  1111     1F24                     	;# 
  1112     1F25                     	;# 
  1113     1F26                     	;# 
  1114     1F27                     	;# 
  1115     1F38                     	;# 
  1116     1F39                     	;# 
  1117     1F3A                     	;# 
  1118     1F3B                     	;# 
  1119     1F3C                     	;# 
  1120     1F3D                     	;# 
  1121     1F3E                     	;# 
  1122     1F3F                     	;# 
  1123     1F43                     	;# 
  1124     1F44                     	;# 
  1125     1F45                     	;# 
  1126     1F46                     	;# 
  1127     1F47                     	;# 
  1128     1F48                     	;# 
  1129     1F49                     	;# 
  1130     1F4A                     	;# 
  1131     1F4E                     	;# 
  1132     1F4F                     	;# 
  1133     1F50                     	;# 
  1134     1F51                     	;# 
  1135     1F52                     	;# 
  1136     1F53                     	;# 
  1137     1F54                     	;# 
  1138     1F55                     	;# 
  1139     1FE4                     	;# 
  1140     1FE5                     	;# 
  1141     1FE6                     	;# 
  1142     1FE7                     	;# 
  1143     1FE8                     	;# 
  1144     1FE8                     	;# 
  1145     1FE9                     	;# 
  1146     1FEA                     	;# 
  1147     1FEB                     	;# 
  1148     1FED                     	;# 
  1149     1FEE                     	;# 
  1150     1FEF                     	;# 
  1151                           
  1152 ;; Function _INT_DefaultInterruptHandler is unused but had its address taken
  1153     0000                     
  1154 ;; Function _Timer1_Start is unused but had its address taken
  1155     0000                     
  1156 ;; Function _Timer1_Stop is unused but had its address taken
  1157     0000                     
  1158 ;; Function _Timer1_PeriodCountSet is unused but had its address taken
  1159     0000                     
  1160                           	psect	stringtext1
  1161     00AA                     __pstringtext1:
  1162     00AA                     _Timer1:
  1163     00AA  345C               	retlw	low _Timer1_Initialize
  1164     00AB  3400               	retlw	high _Timer1_Initialize
  1165     00AC  3400               	retlw	0
  1166     00AD  3400               	retlw	0
  1167     00AE  3400               	retlw	0
  1168     00AF  3400               	retlw	0
  1169     00B0  3400               	retlw	0
  1170     00B1  3400               	retlw	0
  1171     00B2  34DB               	retlw	low _Timer1_OverflowCallbackRegister
  1172     00B3  3400               	retlw	high _Timer1_OverflowCallbackRegister
  1173     00B4  3400               	retlw	0
  1174     00B5  3400               	retlw	0
  1175     00B6                     __end_of_Timer1:
  1176                           
  1177                           	psect	nvCOMMON
  1178     0070                     __pnvCOMMON:
  1179     0070                     _Timer1_OverflowCallback:
  1180     0070                     	ds	2
  1181     0072                     _INT_InterruptHandler:
  1182     0072                     	ds	2
  1183     0012                     _TRISAbits	set	18
  1184     0014                     _TRISC	set	20
  1185     0013                     _TRISB	set	19
  1186     0012                     _TRISA	set	18
  1187     001A                     _LATC	set	26
  1188     0019                     _LATB	set	25
  1189     0018                     _LATA	set	24
  1190     000B                     _INTCONbits	set	11
  1191     020F                     _T1GCONbits	set	527
  1192     020E                     _T1CONbits	set	526
  1193     020E                     _T1CON	set	526
  1194     020C                     _TMR1L	set	524
  1195     020D                     _TMR1H	set	525
  1196     0211                     _T1CLK	set	529
  1197     0210                     _T1GATE	set	528
  1198     020F                     _T1GCON	set	527
  1199     070E                     _PIR2bits	set	1806
  1200     070D                     _PIR1bits	set	1805
  1201     0717                     _PIE1bits	set	1815
  1202     0716                     _PIE0bits	set	1814
  1203     070C                     _PIR0bits	set	1804
  1204     0892                     _OSCTUNE	set	2194
  1205     0890                     _OSCSTAT	set	2192
  1206     0893                     _OSCFRQ	set	2195
  1207     0891                     _OSCEN	set	2193
  1208     088E                     _OSCCON	set	2190
  1209     1F55                     _IOCCF	set	8021
  1210     1F54                     _IOCCN	set	8020
  1211     1F53                     _IOCCP	set	8019
  1212     1F4A                     _IOCBF	set	8010
  1213     1F49                     _IOCBN	set	8009
  1214     1F48                     _IOCBP	set	8008
  1215     1F3F                     _IOCAF	set	7999
  1216     1F3E                     _IOCAN	set	7998
  1217     1F3D                     _IOCAP	set	7997
  1218     1F52                     _INLVLC	set	8018
  1219     1F47                     _INLVLB	set	8007
  1220     1F3C                     _INLVLA	set	7996
  1221     1F51                     _SLRCONC	set	8017
  1222     1F46                     _SLRCONB	set	8006
  1223     1F3B                     _SLRCONA	set	7995
  1224     1F50                     _ODCONC	set	8016
  1225     1F45                     _ODCONB	set	8005
  1226     1F3A                     _ODCONA	set	7994
  1227     1F4F                     _WPUC	set	8015
  1228     1F44                     _WPUB	set	8004
  1229     1F39                     _WPUA	set	7993
  1230     1F4E                     _ANSELC	set	8014
  1231     1F43                     _ANSELB	set	8003
  1232     1F38                     _ANSELA	set	7992
  1233                           
  1234                           	psect	cinit
  1235     0027                     start_initialization:	
  1236                           ; #config settings
  1237                           
  1238     0027                     __initialization:
  1239                           
  1240                           ; Clear objects allocated to COMMON
  1241     0027  01F4               	clrf	__pbssCOMMON& (0+127)
  1242     0028  01F5               	clrf	(__pbssCOMMON+1)& (0+127)
  1243     0029  01F6               	clrf	(__pbssCOMMON+2)& (0+127)
  1244     002A  01F7               	clrf	(__pbssCOMMON+3)& (0+127)
  1245     002B                     end_of_initialization:	
  1246                           ;End of C runtime variable initialization code
  1247                           
  1248     002B                     __end_of__initialization:
  1249     002B  107E               	bcf	int$flags,0	;clear compiler interrupt flag (level 1)
  1250     002C  0140               	movlb	0
  1251     002D  3180  28D3         	ljmp	_main	;jump to C main() function
  1252                           
  1253                           	psect	bssCOMMON
  1254     0074                     __pbssCOMMON:
  1255     0074                     _Timer1_InterruptHandler:
  1256     0074                     	ds	2
  1257     0076                     _timer1ReloadVal:
  1258     0076                     	ds	2
  1259                           
  1260                           	psect	cstackCOMMON
  1261     0078                     __pcstackCOMMON:
  1262     0078                     ?_PIN_MANAGER_IOC:
  1263     0078                     ??_PIN_MANAGER_IOC:	
  1264                           ; 1 bytes @ 0x0
  1265                           
  1266     0078                     ?_Timer1_OverflowISR:	
  1267                           ; 1 bytes @ 0x0
  1268                           
  1269     0078                     ?_CLOCK_Initialize:	
  1270                           ; 1 bytes @ 0x0
  1271                           
  1272     0078                     ?_PIN_MANAGER_Initialize:	
  1273                           ; 1 bytes @ 0x0
  1274                           
  1275     0078                     ?_Timer1_Initialize:	
  1276                           ; 1 bytes @ 0x0
  1277                           
  1278     0078                     ?_Timer1_DefaultOverflowCallback:	
  1279                           ; 1 bytes @ 0x0
  1280                           
  1281     0078                     ??_Timer1_DefaultOverflowCallback:	
  1282                           ; 1 bytes @ 0x0
  1283                           
  1284     0078                     ?_INTERRUPT_Initialize:	
  1285                           ; 1 bytes @ 0x0
  1286                           
  1287     0078                     ?_INTERRUPT_InterruptManager:	
  1288                           ; 1 bytes @ 0x0
  1289                           
  1290     0078                     ?_SYSTEM_Initialize:	
  1291                           ; 1 bytes @ 0x0
  1292                           
  1293     0078                     ?_Timer1_Write:	
  1294                           ; 1 bytes @ 0x0
  1295                           
  1296     0078                     ?_main:	
  1297                           ; 1 bytes @ 0x0
  1298                           
  1299     0078                     Timer1_Write@timerVal:	
  1300                           ; 2 bytes @ 0x0
  1301                           
  1302                           
  1303                           ; 2 bytes @ 0x0
  1304     0078                     	ds	2
  1305     007A                     ?_INT_SetInterruptHandler:
  1306     007A                     ??_Timer1_OverflowISR:	
  1307                           ; 1 bytes @ 0x2
  1308                           
  1309     007A                     ??_CLOCK_Initialize:	
  1310                           ; 1 bytes @ 0x2
  1311                           
  1312     007A                     ??_PIN_MANAGER_Initialize:	
  1313                           ; 1 bytes @ 0x2
  1314                           
  1315     007A                     ?_Timer1_OverflowCallbackRegister:	
  1316                           ; 1 bytes @ 0x2
  1317                           
  1318     007A                     ??_INTERRUPT_InterruptManager:	
  1319                           ; 1 bytes @ 0x2
  1320                           
  1321     007A                     ??_Timer1_Write:	
  1322                           ; 1 bytes @ 0x2
  1323                           
  1324     007A                     INT_SetInterruptHandler@InterruptHandler:	
  1325                           ; 1 bytes @ 0x2
  1326                           
  1327     007A                     Timer1_OverflowCallbackRegister@CallbackHandler:	
  1328                           ; 2 bytes @ 0x2
  1329                           
  1330                           
  1331                           ; 2 bytes @ 0x2
  1332     007A                     	ds	2
  1333     007C                     ??_INT_SetInterruptHandler:
  1334     007C                     ??_Timer1_Initialize:	
  1335                           ; 1 bytes @ 0x4
  1336                           
  1337     007C                     ??_Timer1_OverflowCallbackRegister:	
  1338                           ; 1 bytes @ 0x4
  1339                           
  1340     007C                     ??_INTERRUPT_Initialize:	
  1341                           ; 1 bytes @ 0x4
  1342                           
  1343     007C                     ??_SYSTEM_Initialize:	
  1344                           ; 1 bytes @ 0x4
  1345                           
  1346     007C                     ??_main:	
  1347                           ; 1 bytes @ 0x4
  1348                           
  1349                           
  1350                           	psect	maintext
  1351     00D3                     __pmaintext:	
  1352                           ; 1 bytes @ 0x4
  1353 ;;
  1354 ;;Main: autosize = 0, tempsize = 0, incstack = 0, save=0
  1355 ;;
  1356 ;; *************** function _main *****************
  1357 ;; Defined at:
  1358 ;;		line 39 in file "main.c"
  1359 ;; Parameters:    Size  Location     Type
  1360 ;;		None
  1361 ;; Auto vars:     Size  Location     Type
  1362 ;;		None
  1363 ;; Return value:  Size  Location     Type
  1364 ;;                  2   81[None  ] int 
  1365 ;; Registers used:
  1366 ;;		wreg, status,2, status,0, pclath, cstack
  1367 ;; Tracked objects:
  1368 ;;		On entry : B3F/0
  1369 ;;		On exit  : 0/0
  1370 ;;		Unchanged: 0/0
  1371 ;; Data sizes:     COMMON   BANK0   BANK1   BANK2   BANK3   BANK4   BANK5   BANK6
  1372 ;;      Params:         0       0       0       0       0       0       0       0
  1373 ;;      Locals:         0       0       0       0       0       0       0       0
  1374 ;;      Temps:          0       0       0       0       0       0       0       0
  1375 ;;      Totals:         0       0       0       0       0       0       0       0
  1376 ;;Total ram usage:        0 bytes
  1377 ;; Hardware stack levels required when called: 6
  1378 ;; This function calls:
  1379 ;;		_SYSTEM_Initialize
  1380 ;; This function is called by:
  1381 ;;		Startup code after reset
  1382 ;; This function uses a non-reentrant model
  1383 ;;
  1384                           
  1385     00D3                     _main:	
  1386                           ;psect for function _main
  1387                           
  1388     00D3                     l970:	
  1389                           ;incstack = 0
  1390                           ; Regs used in _main: [wreg+status,2+status,0+pclath+cstack]
  1391                           
  1392                           
  1393                           ;main.c: 41:     SYSTEM_Initialize();
  1394     00D3  3180  209D  3180   	fcall	_SYSTEM_Initialize
  1395     00D6                     l972:
  1396                           
  1397                           ;main.c: 48:     (INTCONbits.GIE = 1);
  1398     00D6  178B               	bsf	11,7	;volatile
  1399     00D7                     l974:
  1400                           
  1401                           ;main.c: 54:     (INTCONbits.PEIE = 1);
  1402     00D7  170B               	bsf	11,6	;volatile
  1403     00D8                     l82:	
  1404                           ;main.c: 60:     while(1)
  1405                           
  1406     00D8                     l83:	
  1407                           ;main.c: 61:     {;main.c: 62:     }
  1408                           
  1409     00D8  28D8               	goto	l82
  1410     00D9  3180  2825         	ljmp	start
  1411     00DB                     __end_of_main:
  1412                           
  1413                           	psect	text1
  1414     009D                     __ptext1:	
  1415 ;; *************** function _SYSTEM_Initialize *****************
  1416 ;; Defined at:
  1417 ;;		line 37 in file "mcc_generated_files/system/src/system.c"
  1418 ;; Parameters:    Size  Location     Type
  1419 ;;		None
  1420 ;; Auto vars:     Size  Location     Type
  1421 ;;		None
  1422 ;; Return value:  Size  Location     Type
  1423 ;;                  1    wreg      void 
  1424 ;; Registers used:
  1425 ;;		wreg, status,2, status,0, pclath, cstack
  1426 ;; Tracked objects:
  1427 ;;		On entry : 0/0
  1428 ;;		On exit  : 0/0
  1429 ;;		Unchanged: 0/0
  1430 ;; Data sizes:     COMMON   BANK0   BANK1   BANK2   BANK3   BANK4   BANK5   BANK6
  1431 ;;      Params:         0       0       0       0       0       0       0       0
  1432 ;;      Locals:         0       0       0       0       0       0       0       0
  1433 ;;      Temps:          0       0       0       0       0       0       0       0
  1434 ;;      Totals:         0       0       0       0       0       0       0       0
  1435 ;;Total ram usage:        0 bytes
  1436 ;; Hardware stack levels used: 1
  1437 ;; Hardware stack levels required when called: 5
  1438 ;; This function calls:
  1439 ;;		_CLOCK_Initialize
  1440 ;;		_INTERRUPT_Initialize
  1441 ;;		_PIN_MANAGER_Initialize
  1442 ;;		_Timer1_Initialize
  1443 ;; This function is called by:
  1444 ;;		_main
  1445 ;; This function uses a non-reentrant model
  1446 ;;
  1447                           
  1448     009D                     _SYSTEM_Initialize:	
  1449                           ;psect for function _SYSTEM_Initialize
  1450                           
  1451     009D                     l956:	
  1452                           ;incstack = 0
  1453                           ; Regs used in _SYSTEM_Initialize: [wreg+status,2+status,0+pclath+cstack]
  1454                           
  1455                           
  1456                           ;mcc_generated_files/system/src/system.c: 39:     CLOCK_Initialize();
  1457     009D  3180  20C1  3180   	fcall	_CLOCK_Initialize
  1458                           
  1459                           ;mcc_generated_files/system/src/system.c: 40:     PIN_MANAGER_Initialize();
  1460     00A0  3180  202F  3180   	fcall	_PIN_MANAGER_Initialize
  1461                           
  1462                           ;mcc_generated_files/system/src/system.c: 41:     Timer1_Initialize();
  1463     00A3  3180  205C  3180   	fcall	_Timer1_Initialize
  1464                           
  1465                           ;mcc_generated_files/system/src/system.c: 42:     INTERRUPT_Initialize();
  1466     00A6  3180  20B6  3180   	fcall	_INTERRUPT_Initialize
  1467     00A9                     l60:
  1468     00A9  0008               	return
  1469     00AA                     __end_of_SYSTEM_Initialize:
  1470                           
  1471                           	psect	text2
  1472     005C                     __ptext2:	
  1473 ;; *************** function _Timer1_Initialize *****************
  1474 ;; Defined at:
  1475 ;;		line 58 in file "mcc_generated_files/timer/src/tmr1.c"
  1476 ;; Parameters:    Size  Location     Type
  1477 ;;		None
  1478 ;; Auto vars:     Size  Location     Type
  1479 ;;		None
  1480 ;; Return value:  Size  Location     Type
  1481 ;;                  1    wreg      void 
  1482 ;; Registers used:
  1483 ;;		wreg, status,2, status,0, pclath, cstack
  1484 ;; Tracked objects:
  1485 ;;		On entry : 0/0
  1486 ;;		On exit  : 0/0
  1487 ;;		Unchanged: 0/0
  1488 ;; Data sizes:     COMMON   BANK0   BANK1   BANK2   BANK3   BANK4   BANK5   BANK6
  1489 ;;      Params:         0       0       0       0       0       0       0       0
  1490 ;;      Locals:         0       0       0       0       0       0       0       0
  1491 ;;      Temps:          0       0       0       0       0       0       0       0
  1492 ;;      Totals:         0       0       0       0       0       0       0       0
  1493 ;;Total ram usage:        0 bytes
  1494 ;; Hardware stack levels used: 1
  1495 ;; Hardware stack levels required when called: 4
  1496 ;; This function calls:
  1497 ;;		_Timer1_OverflowCallbackRegister
  1498 ;; This function is called by:
  1499 ;;		_SYSTEM_Initialize
  1500 ;; This function uses a non-reentrant model
  1501 ;;
  1502                           
  1503     005C                     _Timer1_Initialize:	
  1504                           ;psect for function _Timer1_Initialize
  1505                           
  1506     005C                     l916:	
  1507                           ;incstack = 0
  1508                           ; Regs used in _Timer1_Initialize: [wreg+status,2+status,0+pclath+cstack]
  1509                           
  1510                           
  1511                           ;mcc_generated_files/timer/src/tmr1.c: 61:     T1GCON = 0x0;
  1512     005C  0144               	movlb	4	; select bank4
  1513     005D  018F               	clrf	15	;volatile
  1514                           
  1515                           ;mcc_generated_files/timer/src/tmr1.c: 63:     T1GATE = 0x0;
  1516     005E  0190               	clrf	16	;volatile
  1517     005F                     l918:
  1518                           
  1519                           ;mcc_generated_files/timer/src/tmr1.c: 65:     T1CLK = 0x6;
  1520     005F  3006               	movlw	6
  1521     0060  0091               	movwf	17	;volatile
  1522     0061                     l920:
  1523                           
  1524                           ;mcc_generated_files/timer/src/tmr1.c: 67:     TMR1H = 0xB;
  1525     0061  300B               	movlw	11
  1526     0062  008D               	movwf	13	;volatile
  1527     0063                     l922:
  1528                           
  1529                           ;mcc_generated_files/timer/src/tmr1.c: 69:     TMR1L = 0xDB;
  1530     0063  30DB               	movlw	219
  1531     0064  008C               	movwf	12	;volatile
  1532     0065                     l924:
  1533                           
  1534                           ;mcc_generated_files/timer/src/tmr1.c: 72:     timer1ReloadVal=(uint16_t)((TMR1H << 8) |
      +                           TMR1L);
  1535     0065  080D               	movf	13,w	;volatile
  1536     0066  00F7               	movwf	_timer1ReloadVal+1	;volatile
  1537     0067  080C               	movf	12,w	;volatile
  1538     0068  00F6               	movwf	_timer1ReloadVal	;volatile
  1539     0069                     l926:
  1540                           
  1541                           ;mcc_generated_files/timer/src/tmr1.c: 75:     Timer1_OverflowCallbackRegister(Timer1_De
      +                          faultOverflowCallback);
  1542     0069  30CA               	movlw	low _Timer1_DefaultOverflowCallback
  1543     006A  00FA               	movwf	Timer1_OverflowCallbackRegister@CallbackHandler
  1544     006B  3000               	movlw	high _Timer1_DefaultOverflowCallback
  1545     006C  00FB               	movwf	Timer1_OverflowCallbackRegister@CallbackHandler+1
  1546     006D  3180  20DB  3180   	fcall	_Timer1_OverflowCallbackRegister
  1547     0070                     l928:
  1548                           
  1549                           ;mcc_generated_files/timer/src/tmr1.c: 78:      PIR1bits.TMR1IF = 0;
  1550     0070  014E               	movlb	14	; select bank14
  1551     0071  128D               	bcf	13,5	;volatile
  1552     0072                     l930:
  1553                           
  1554                           ;mcc_generated_files/timer/src/tmr1.c: 80:      PIE1bits.TMR1IE = 1;
  1555     0072  1697               	bsf	23,5	;volatile
  1556     0073                     l932:
  1557                           
  1558                           ;mcc_generated_files/timer/src/tmr1.c: 83:     T1CON = 0x31;
  1559     0073  3031               	movlw	49
  1560     0074  0144               	movlb	4	; select bank4
  1561     0075  008E               	movwf	14	;volatile
  1562     0076                     l198:
  1563     0076  0008               	return
  1564     0077                     __end_of_Timer1_Initialize:
  1565                           
  1566                           	psect	text3
  1567     00DB                     __ptext3:	
  1568 ;; *************** function _Timer1_OverflowCallbackRegister *****************
  1569 ;; Defined at:
  1570 ;;		line 168 in file "mcc_generated_files/timer/src/tmr1.c"
  1571 ;; Parameters:    Size  Location     Type
  1572 ;;  CallbackHand    2    2[COMMON] PTR FTN()void 
  1573 ;;		 -> Timer1_DefaultOverflowCallback(1), 
  1574 ;; Auto vars:     Size  Location     Type
  1575 ;;		None
  1576 ;; Return value:  Size  Location     Type
  1577 ;;                  1    wreg      void 
  1578 ;; Registers used:
  1579 ;;		wreg
  1580 ;; Tracked objects:
  1581 ;;		On entry : 0/0
  1582 ;;		On exit  : 0/0
  1583 ;;		Unchanged: 0/0
  1584 ;; Data sizes:     COMMON   BANK0   BANK1   BANK2   BANK3   BANK4   BANK5   BANK6
  1585 ;;      Params:         2       0       0       0       0       0       0       0
  1586 ;;      Locals:         0       0       0       0       0       0       0       0
  1587 ;;      Temps:          0       0       0       0       0       0       0       0
  1588 ;;      Totals:         2       0       0       0       0       0       0       0
  1589 ;;Total ram usage:        2 bytes
  1590 ;; Hardware stack levels used: 1
  1591 ;; Hardware stack levels required when called: 3
  1592 ;; This function calls:
  1593 ;;		Nothing
  1594 ;; This function is called by:
  1595 ;;		_Timer1_Initialize
  1596 ;; This function uses a non-reentrant model
  1597 ;;
  1598                           
  1599     00DB                     _Timer1_OverflowCallbackRegister:	
  1600                           ;psect for function _Timer1_OverflowCallbackRegister
  1601                           
  1602     00DB                     l910:	
  1603                           ;incstack = 0
  1604                           ; Regs used in _Timer1_OverflowCallbackRegister: [wreg]
  1605                           
  1606                           
  1607                           ;mcc_generated_files/timer/src/tmr1.c: 168: void Timer1_OverflowCallbackRegister(void (*
      +                           CallbackHandler)(void));mcc_generated_files/timer/src/tmr1.c: 169: {;mcc_generated_file
      +                          s/timer/src/tmr1.c: 170:     Timer1_OverflowCallback = CallbackHandler;
  1608     00DB  087B               	movf	Timer1_OverflowCallbackRegister@CallbackHandler+1,w
  1609     00DC  00F1               	movwf	_Timer1_OverflowCallback+1
  1610     00DD  087A               	movf	Timer1_OverflowCallbackRegister@CallbackHandler,w
  1611     00DE  00F0               	movwf	_Timer1_OverflowCallback
  1612     00DF                     l231:
  1613     00DF  0008               	return
  1614     00E0                     __end_of_Timer1_OverflowCallbackRegister:
  1615                           
  1616                           	psect	text4
  1617     002F                     __ptext4:	
  1618 ;; *************** function _PIN_MANAGER_Initialize *****************
  1619 ;; Defined at:
  1620 ;;		line 38 in file "mcc_generated_files/system/src/pins.c"
  1621 ;; Parameters:    Size  Location     Type
  1622 ;;		None
  1623 ;; Auto vars:     Size  Location     Type
  1624 ;;		None
  1625 ;; Return value:  Size  Location     Type
  1626 ;;                  1    wreg      void 
  1627 ;; Registers used:
  1628 ;;		wreg, status,2
  1629 ;; Tracked objects:
  1630 ;;		On entry : 0/0
  1631 ;;		On exit  : 0/0
  1632 ;;		Unchanged: 0/0
  1633 ;; Data sizes:     COMMON   BANK0   BANK1   BANK2   BANK3   BANK4   BANK5   BANK6
  1634 ;;      Params:         0       0       0       0       0       0       0       0
  1635 ;;      Locals:         0       0       0       0       0       0       0       0
  1636 ;;      Temps:          0       0       0       0       0       0       0       0
  1637 ;;      Totals:         0       0       0       0       0       0       0       0
  1638 ;;Total ram usage:        0 bytes
  1639 ;; Hardware stack levels used: 1
  1640 ;; Hardware stack levels required when called: 3
  1641 ;; This function calls:
  1642 ;;		Nothing
  1643 ;; This function is called by:
  1644 ;;		_SYSTEM_Initialize
  1645 ;; This function uses a non-reentrant model
  1646 ;;
  1647                           
  1648     002F                     _PIN_MANAGER_Initialize:	
  1649                           ;psect for function _PIN_MANAGER_Initialize
  1650                           
  1651     002F                     l788:	
  1652                           ;incstack = 0
  1653                           ; Regs used in _PIN_MANAGER_Initialize: [wreg+status,2]
  1654                           
  1655                           
  1656                           ;mcc_generated_files/system/src/pins.c: 43:     LATA = 0x0;
  1657     002F  0140               	movlb	0	; select bank0
  1658     0030  0198               	clrf	24	;volatile
  1659                           
  1660                           ;mcc_generated_files/system/src/pins.c: 44:     LATB = 0x0;
  1661     0031  0199               	clrf	25	;volatile
  1662                           
  1663                           ;mcc_generated_files/system/src/pins.c: 45:     LATC = 0x0;
  1664     0032  019A               	clrf	26	;volatile
  1665     0033                     l790:
  1666                           
  1667                           ;mcc_generated_files/system/src/pins.c: 50:     TRISA = 0x3B;
  1668     0033  303B               	movlw	59
  1669     0034  0092               	movwf	18	;volatile
  1670     0035                     l792:
  1671                           
  1672                           ;mcc_generated_files/system/src/pins.c: 51:     TRISB = 0xF0;
  1673     0035  30F0               	movlw	240
  1674     0036  0093               	movwf	19	;volatile
  1675     0037                     l794:
  1676                           
  1677                           ;mcc_generated_files/system/src/pins.c: 52:     TRISC = 0xFF;
  1678     0037  30FF               	movlw	255
  1679     0038  0094               	movwf	20	;volatile
  1680     0039                     l796:
  1681                           
  1682                           ;mcc_generated_files/system/src/pins.c: 57:     ANSELA = 0x33;
  1683     0039  3033               	movlw	51
  1684     003A  017E               	movlb	62	; select bank62
  1685     003B  00B8               	movwf	56	;volatile
  1686     003C                     l798:
  1687                           
  1688                           ;mcc_generated_files/system/src/pins.c: 58:     ANSELB = 0xF0;
  1689     003C  30F0               	movlw	240
  1690     003D  00C3               	movwf	67	;volatile
  1691     003E                     l800:
  1692                           
  1693                           ;mcc_generated_files/system/src/pins.c: 59:     ANSELC = 0xFF;
  1694     003E  30FF               	movlw	255
  1695     003F  00CE               	movwf	78	;volatile
  1696                           
  1697                           ;mcc_generated_files/system/src/pins.c: 64:     WPUA = 0x0;
  1698     0040  01B9               	clrf	57	;volatile
  1699                           
  1700                           ;mcc_generated_files/system/src/pins.c: 65:     WPUB = 0x0;
  1701     0041  01C4               	clrf	68	;volatile
  1702                           
  1703                           ;mcc_generated_files/system/src/pins.c: 66:     WPUC = 0x0;
  1704     0042  01CF               	clrf	79	;volatile
  1705                           
  1706                           ;mcc_generated_files/system/src/pins.c: 77:     ODCONA = 0x0;
  1707     0043  01BA               	clrf	58	;volatile
  1708                           
  1709                           ;mcc_generated_files/system/src/pins.c: 78:     ODCONB = 0x0;
  1710     0044  01C5               	clrf	69	;volatile
  1711                           
  1712                           ;mcc_generated_files/system/src/pins.c: 79:     ODCONC = 0x0;
  1713     0045  01D0               	clrf	80	;volatile
  1714     0046                     l802:
  1715                           
  1716                           ;mcc_generated_files/system/src/pins.c: 83:     SLRCONA = 0x37;
  1717     0046  3037               	movlw	55
  1718     0047  00BB               	movwf	59	;volatile
  1719     0048                     l804:
  1720                           
  1721                           ;mcc_generated_files/system/src/pins.c: 84:     SLRCONB = 0xF0;
  1722     0048  30F0               	movlw	240
  1723     0049  00C6               	movwf	70	;volatile
  1724     004A                     l806:
  1725                           
  1726                           ;mcc_generated_files/system/src/pins.c: 85:     SLRCONC = 0xFF;
  1727     004A  30FF               	movlw	255
  1728     004B  00D1               	movwf	81	;volatile
  1729     004C                     l808:
  1730                           
  1731                           ;mcc_generated_files/system/src/pins.c: 89:     INLVLA = 0x3F;
  1732     004C  303F               	movlw	63
  1733     004D  00BC               	movwf	60	;volatile
  1734     004E                     l810:
  1735                           
  1736                           ;mcc_generated_files/system/src/pins.c: 90:     INLVLB = 0xF0;
  1737     004E  30F0               	movlw	240
  1738     004F  00C7               	movwf	71	;volatile
  1739     0050                     l812:
  1740                           
  1741                           ;mcc_generated_files/system/src/pins.c: 91:     INLVLC = 0xFF;
  1742     0050  30FF               	movlw	255
  1743     0051  00D2               	movwf	82	;volatile
  1744                           
  1745                           ;mcc_generated_files/system/src/pins.c: 100:     IOCAP = 0x0;
  1746     0052  01BD               	clrf	61	;volatile
  1747                           
  1748                           ;mcc_generated_files/system/src/pins.c: 101:     IOCAN = 0x0;
  1749     0053  01BE               	clrf	62	;volatile
  1750                           
  1751                           ;mcc_generated_files/system/src/pins.c: 102:     IOCAF = 0x0;
  1752     0054  01BF               	clrf	63	;volatile
  1753                           
  1754                           ;mcc_generated_files/system/src/pins.c: 103:     IOCBP = 0x0;
  1755     0055  01C8               	clrf	72	;volatile
  1756                           
  1757                           ;mcc_generated_files/system/src/pins.c: 104:     IOCBN = 0x0;
  1758     0056  01C9               	clrf	73	;volatile
  1759                           
  1760                           ;mcc_generated_files/system/src/pins.c: 105:     IOCBF = 0x0;
  1761     0057  01CA               	clrf	74	;volatile
  1762                           
  1763                           ;mcc_generated_files/system/src/pins.c: 106:     IOCCP = 0x0;
  1764     0058  01D3               	clrf	83	;volatile
  1765                           
  1766                           ;mcc_generated_files/system/src/pins.c: 107:     IOCCN = 0x0;
  1767     0059  01D4               	clrf	84	;volatile
  1768                           
  1769                           ;mcc_generated_files/system/src/pins.c: 108:     IOCCF = 0x0;
  1770     005A  01D5               	clrf	85	;volatile
  1771     005B                     l148:
  1772     005B  0008               	return
  1773     005C                     __end_of_PIN_MANAGER_Initialize:
  1774                           
  1775                           	psect	text5
  1776     00B6                     __ptext5:	
  1777 ;; *************** function _INTERRUPT_Initialize *****************
  1778 ;; Defined at:
  1779 ;;		line 40 in file "mcc_generated_files/system/src/interrupt.c"
  1780 ;; Parameters:    Size  Location     Type
  1781 ;;		None
  1782 ;; Auto vars:     Size  Location     Type
  1783 ;;		None
  1784 ;; Return value:  Size  Location     Type
  1785 ;;                  1    wreg      void 
  1786 ;; Registers used:
  1787 ;;		wreg, status,2, status,0, pclath, cstack
  1788 ;; Tracked objects:
  1789 ;;		On entry : 0/0
  1790 ;;		On exit  : 0/0
  1791 ;;		Unchanged: 0/0
  1792 ;; Data sizes:     COMMON   BANK0   BANK1   BANK2   BANK3   BANK4   BANK5   BANK6
  1793 ;;      Params:         0       0       0       0       0       0       0       0
  1794 ;;      Locals:         0       0       0       0       0       0       0       0
  1795 ;;      Temps:          0       0       0       0       0       0       0       0
  1796 ;;      Totals:         0       0       0       0       0       0       0       0
  1797 ;;Total ram usage:        0 bytes
  1798 ;; Hardware stack levels used: 1
  1799 ;; Hardware stack levels required when called: 4
  1800 ;; This function calls:
  1801 ;;		_INT_SetInterruptHandler
  1802 ;; This function is called by:
  1803 ;;		_SYSTEM_Initialize
  1804 ;; This function uses a non-reentrant model
  1805 ;;
  1806                           
  1807     00B6                     _INTERRUPT_Initialize:	
  1808                           ;psect for function _INTERRUPT_Initialize
  1809                           
  1810     00B6                     l912:	
  1811                           ;incstack = 0
  1812                           ; Regs used in _INTERRUPT_Initialize: [wreg+status,2+status,0+pclath+cstack]
  1813                           
  1814                           
  1815                           ;mcc_generated_files/system/src/interrupt.c: 44:     (PIR0bits.INTF = 0);
  1816     00B6  014E               	movlb	14	; select bank14
  1817     00B7  100C               	bcf	12,0	;volatile
  1818                           
  1819                           ;mcc_generated_files/system/src/interrupt.c: 45:     (INTCONbits.INTEDG = 1);
  1820     00B8  140B               	bsf	11,0	;volatile
  1821     00B9                     l914:
  1822                           
  1823                           ;mcc_generated_files/system/src/interrupt.c: 47:     INT_SetInterruptHandler(INT_Default
      +                          InterruptHandler);
  1824     00B9  3000               	movlw	0
  1825     00BA  00FA               	movwf	INT_SetInterruptHandler@InterruptHandler
  1826     00BB  3000               	movlw	0
  1827     00BC  00FB               	movwf	INT_SetInterruptHandler@InterruptHandler+1
  1828     00BD  3180  20E0  3180   	fcall	_INT_SetInterruptHandler
  1829     00C0                     l25:
  1830     00C0  0008               	return
  1831     00C1                     __end_of_INTERRUPT_Initialize:
  1832                           
  1833                           	psect	text6
  1834     00E0                     __ptext6:	
  1835 ;; *************** function _INT_SetInterruptHandler *****************
  1836 ;; Defined at:
  1837 ;;		line 101 in file "mcc_generated_files/system/src/interrupt.c"
  1838 ;; Parameters:    Size  Location     Type
  1839 ;;  InterruptHan    2    2[COMMON] PTR FTN()void 
  1840 ;;		 -> INT_DefaultInterruptHandler(1), 
  1841 ;; Auto vars:     Size  Location     Type
  1842 ;;		None
  1843 ;; Return value:  Size  Location     Type
  1844 ;;                  1    wreg      void 
  1845 ;; Registers used:
  1846 ;;		wreg
  1847 ;; Tracked objects:
  1848 ;;		On entry : 0/0
  1849 ;;		On exit  : 0/0
  1850 ;;		Unchanged: 0/0
  1851 ;; Data sizes:     COMMON   BANK0   BANK1   BANK2   BANK3   BANK4   BANK5   BANK6
  1852 ;;      Params:         2       0       0       0       0       0       0       0
  1853 ;;      Locals:         0       0       0       0       0       0       0       0
  1854 ;;      Temps:          0       0       0       0       0       0       0       0
  1855 ;;      Totals:         2       0       0       0       0       0       0       0
  1856 ;;Total ram usage:        2 bytes
  1857 ;; Hardware stack levels used: 1
  1858 ;; Hardware stack levels required when called: 3
  1859 ;; This function calls:
  1860 ;;		Nothing
  1861 ;; This function is called by:
  1862 ;;		_INTERRUPT_Initialize
  1863 ;; This function uses a non-reentrant model
  1864 ;;
  1865                           
  1866     00E0                     _INT_SetInterruptHandler:	
  1867                           ;psect for function _INT_SetInterruptHandler
  1868                           
  1869     00E0                     l908:	
  1870                           ;incstack = 0
  1871                           ; Regs used in _INT_SetInterruptHandler: [wreg]
  1872                           
  1873                           
  1874                           ;mcc_generated_files/system/src/interrupt.c: 102:     INT_InterruptHandler = InterruptHa
      +                          ndler;
  1875     00E0  087B               	movf	INT_SetInterruptHandler@InterruptHandler+1,w
  1876     00E1  00F3               	movwf	_INT_InterruptHandler+1
  1877     00E2  087A               	movf	INT_SetInterruptHandler@InterruptHandler,w
  1878     00E3  00F2               	movwf	_INT_InterruptHandler
  1879     00E4                     l46:
  1880     00E4  0008               	return
  1881     00E5                     __end_of_INT_SetInterruptHandler:
  1882                           
  1883                           	psect	text7
  1884     00C1                     __ptext7:	
  1885 ;; *************** function _CLOCK_Initialize *****************
  1886 ;; Defined at:
  1887 ;;		line 37 in file "mcc_generated_files/system/src/clock.c"
  1888 ;; Parameters:    Size  Location     Type
  1889 ;;		None
  1890 ;; Auto vars:     Size  Location     Type
  1891 ;;		None
  1892 ;; Return value:  Size  Location     Type
  1893 ;;                  1    wreg      void 
  1894 ;; Registers used:
  1895 ;;		wreg, status,2
  1896 ;; Tracked objects:
  1897 ;;		On entry : 0/0
  1898 ;;		On exit  : 0/0
  1899 ;;		Unchanged: 0/0
  1900 ;; Data sizes:     COMMON   BANK0   BANK1   BANK2   BANK3   BANK4   BANK5   BANK6
  1901 ;;      Params:         0       0       0       0       0       0       0       0
  1902 ;;      Locals:         0       0       0       0       0       0       0       0
  1903 ;;      Temps:          0       0       0       0       0       0       0       0
  1904 ;;      Totals:         0       0       0       0       0       0       0       0
  1905 ;;Total ram usage:        0 bytes
  1906 ;; Hardware stack levels used: 1
  1907 ;; Hardware stack levels required when called: 3
  1908 ;; This function calls:
  1909 ;;		Nothing
  1910 ;; This function is called by:
  1911 ;;		_SYSTEM_Initialize
  1912 ;; This function uses a non-reentrant model
  1913 ;;
  1914                           
  1915     00C1                     _CLOCK_Initialize:	
  1916                           ;psect for function _CLOCK_Initialize
  1917                           
  1918     00C1                     l780:	
  1919                           ;incstack = 0
  1920                           ; Regs used in _CLOCK_Initialize: [wreg+status,2]
  1921                           
  1922                           
  1923                           ;mcc_generated_files/system/src/clock.c: 41:     OSCCON = 0x20;
  1924     00C1  3020               	movlw	32
  1925     00C2  0151               	movlb	17	; select bank17
  1926     00C3  008E               	movwf	14	;volatile
  1927                           
  1928                           ;mcc_generated_files/system/src/clock.c: 43:     OSCEN = 0x40;
  1929     00C4  3040               	movlw	64
  1930     00C5  0091               	movwf	17	;volatile
  1931     00C6                     l782:
  1932                           
  1933                           ;mcc_generated_files/system/src/clock.c: 45:     OSCFRQ = 0x0;
  1934     00C6  0193               	clrf	19	;volatile
  1935     00C7                     l784:
  1936                           
  1937                           ;mcc_generated_files/system/src/clock.c: 47:     OSCSTAT = 0x0;
  1938     00C7  0190               	clrf	16	;volatile
  1939     00C8                     l786:
  1940                           
  1941                           ;mcc_generated_files/system/src/clock.c: 49:     OSCTUNE = 0x0;
  1942     00C8  0192               	clrf	18	;volatile
  1943     00C9                     l73:
  1944     00C9  0008               	return
  1945     00CA                     __end_of_CLOCK_Initialize:
  1946                           
  1947                           	psect	intentry
  1948     0004                     __pintentry:	
  1949 ;; *************** function _INTERRUPT_InterruptManager *****************
  1950 ;; Defined at:
  1951 ;;		line 59 in file "mcc_generated_files/system/src/interrupt.c"
  1952 ;; Parameters:    Size  Location     Type
  1953 ;;		None
  1954 ;; Auto vars:     Size  Location     Type
  1955 ;;		None
  1956 ;; Return value:  Size  Location     Type
  1957 ;;                  1    wreg      void 
  1958 ;; Registers used:
  1959 ;;		wreg, status,2, status,0, pclath, cstack
  1960 ;; Tracked objects:
  1961 ;;		On entry : 0/0
  1962 ;;		On exit  : 0/0
  1963 ;;		Unchanged: 0/0
  1964 ;; Data sizes:     COMMON   BANK0   BANK1   BANK2   BANK3   BANK4   BANK5   BANK6
  1965 ;;      Params:         0       0       0       0       0       0       0       0
  1966 ;;      Locals:         0       0       0       0       0       0       0       0
  1967 ;;      Temps:          0       0       0       0       0       0       0       0
  1968 ;;      Totals:         0       0       0       0       0       0       0       0
  1969 ;;Total ram usage:        0 bytes
  1970 ;; Hardware stack levels used: 1
  1971 ;; Hardware stack levels required when called: 2
  1972 ;; This function calls:
  1973 ;;		_PIN_MANAGER_IOC
  1974 ;;		_Timer1_OverflowISR
  1975 ;; This function is called by:
  1976 ;;		Interrupt level 1
  1977 ;; This function uses a non-reentrant model
  1978 ;;
  1979                           
  1980     0004                     _INTERRUPT_InterruptManager:
  1981                           
  1982                           ;incstack = 0
  1983     0004  147E               	bsf	int$flags,0	;set compiler interrupt flag (level 1)
  1984                           
  1985                           ; Regs used in _INTERRUPT_InterruptManager: [wreg+status,2+status,0+pclath+cstack]
  1986     0005  3180               	pagesel	$
  1987     0006                     i1l958:
  1988                           
  1989                           ;mcc_generated_files/system/src/interrupt.c: 62:     if(PIE0bits.IOCIE == 1 && PIR0bits.
      +                          IOCIF == 1)
  1990     0006  014E               	movlb	14	; select bank14
  1991     0007  1E16               	btfss	22,4	;volatile
  1992     0008  280A               	goto	u12_21
  1993     0009  280B               	goto	u12_20
  1994     000A                     u12_21:
  1995     000A  2813               	goto	i1l30
  1996     000B                     u12_20:
  1997     000B                     i1l960:
  1998     000B  1E0C               	btfss	12,4	;volatile
  1999     000C  280E               	goto	u13_21
  2000     000D  280F               	goto	u13_20
  2001     000E                     u13_21:
  2002     000E  2813               	goto	i1l30
  2003     000F                     u13_20:
  2004     000F                     i1l962:
  2005                           
  2006                           ;mcc_generated_files/system/src/interrupt.c: 63:     {;mcc_generated_files/system/src/in
      +                          terrupt.c: 64:         PIN_MANAGER_IOC();
  2007     000F  3180  20E5  3180   	fcall	_PIN_MANAGER_IOC
  2008                           
  2009                           ;mcc_generated_files/system/src/interrupt.c: 65:     }
  2010     0012  2823               	goto	i1l36
  2011     0013                     i1l30:	
  2012                           ;mcc_generated_files/system/src/interrupt.c: 66:     else if(INTCONbits.PEIE == 1)
  2013                           
  2014     0013  1F0B               	btfss	11,6	;volatile
  2015     0014  2816               	goto	u14_21
  2016     0015  2817               	goto	u14_20
  2017     0016                     u14_21:
  2018     0016  2823               	goto	i1l36
  2019     0017                     u14_20:
  2020     0017                     i1l964:
  2021                           
  2022                           ;mcc_generated_files/system/src/interrupt.c: 67:     {;mcc_generated_files/system/src/in
      +                          terrupt.c: 68:         if(PIE1bits.TMR1IE == 1 && PIR1bits.TMR1IF == 1)
  2023     0017  1E97               	btfss	23,5	;volatile
  2024     0018  281A               	goto	u15_21
  2025     0019  281B               	goto	u15_20
  2026     001A                     u15_21:
  2027     001A  2823               	goto	i1l35
  2028     001B                     u15_20:
  2029     001B                     i1l966:
  2030     001B  1E8D               	btfss	13,5	;volatile
  2031     001C  281E               	goto	u16_21
  2032     001D  281F               	goto	u16_20
  2033     001E                     u16_21:
  2034     001E  2823               	goto	i1l35
  2035     001F                     u16_20:
  2036     001F                     i1l968:
  2037                           
  2038                           ;mcc_generated_files/system/src/interrupt.c: 69:         {;mcc_generated_files/system/sr
      +                          c/interrupt.c: 70:             Timer1_OverflowISR();
  2039     001F  3180  2077  3180   	fcall	_Timer1_OverflowISR
  2040                           
  2041                           ;mcc_generated_files/system/src/interrupt.c: 71:         }
  2042     0022  2823               	goto	i1l36
  2043     0023                     i1l35:	
  2044                           ;mcc_generated_files/system/src/interrupt.c: 78:     {;mcc_generated_files/system/src/in
      +                          terrupt.c: 80:     }
  2045                           
  2046     0023                     i1l36:
  2047     0023  107E               	bcf	int$flags,0	;clear compiler interrupt flag (level 1)
  2048     0024  0009               	retfie
  2049     0025                     __end_of_INTERRUPT_InterruptManager:
  2050                           
  2051                           	psect	text9
  2052     0077                     __ptext9:	
  2053 ;; *************** function _Timer1_OverflowISR *****************
  2054 ;; Defined at:
  2055 ;;		line 155 in file "mcc_generated_files/timer/src/tmr1.c"
  2056 ;; Parameters:    Size  Location     Type
  2057 ;;		None
  2058 ;; Auto vars:     Size  Location     Type
  2059 ;;		None
  2060 ;; Return value:  Size  Location     Type
  2061 ;;                  1    wreg      void 
  2062 ;; Registers used:
  2063 ;;		wreg, status,2, status,0, pclath, cstack
  2064 ;; Tracked objects:
  2065 ;;		On entry : 0/0
  2066 ;;		On exit  : 0/0
  2067 ;;		Unchanged: 0/0
  2068 ;; Data sizes:     COMMON   BANK0   BANK1   BANK2   BANK3   BANK4   BANK5   BANK6
  2069 ;;      Params:         0       0       0       0       0       0       0       0
  2070 ;;      Locals:         0       0       0       0       0       0       0       0
  2071 ;;      Temps:          0       0       0       0       0       0       0       0
  2072 ;;      Totals:         0       0       0       0       0       0       0       0
  2073 ;;Total ram usage:        0 bytes
  2074 ;; Hardware stack levels used: 1
  2075 ;; Hardware stack levels required when called: 1
  2076 ;; This function calls:
  2077 ;;		NULL
  2078 ;;		_Timer1_DefaultOverflowCallback
  2079 ;;		_Timer1_Write
  2080 ;; This function is called by:
  2081 ;;		_INTERRUPT_InterruptManager
  2082 ;; This function uses a non-reentrant model
  2083 ;;
  2084                           
  2085     0077                     _Timer1_OverflowISR:	
  2086                           ;psect for function _Timer1_OverflowISR
  2087                           
  2088     0077                     i1l948:	
  2089                           ;incstack = 0
  2090                           ; Regs used in _Timer1_OverflowISR: [wreg+status,2+status,0+pclath+cstack]
  2091                           
  2092                           
  2093                           ;mcc_generated_files/timer/src/tmr1.c: 159:     PIR1bits.TMR1IF = 0;
  2094     0077  014E               	movlb	14	; select bank14
  2095     0078  128D               	bcf	13,5	;volatile
  2096     0079                     i1l950:
  2097                           
  2098                           ;mcc_generated_files/timer/src/tmr1.c: 160:     Timer1_Write(timer1ReloadVal);
  2099     0079  0877               	movf	_timer1ReloadVal+1,w	;volatile
  2100     007A  00F9               	movwf	Timer1_Write@timerVal+1
  2101     007B  0876               	movf	_timer1ReloadVal,w	;volatile
  2102     007C  00F8               	movwf	Timer1_Write@timerVal
  2103     007D  3180  208C  3180   	fcall	_Timer1_Write
  2104     0080                     i1l952:
  2105                           
  2106                           ;mcc_generated_files/timer/src/tmr1.c: 162:     if(Timer1_OverflowCallback)
  2107     0080  0870               	movf	_Timer1_OverflowCallback,w
  2108     0081  0471               	iorwf	_Timer1_OverflowCallback+1,w
  2109     0082  1903               	btfsc	3,2
  2110     0083  2885               	goto	u11_21
  2111     0084  2886               	goto	u11_20
  2112     0085                     u11_21:
  2113     0085  288B               	goto	i1l228
  2114     0086                     u11_20:
  2115     0086                     i1l954:
  2116                           
  2117                           ;mcc_generated_files/timer/src/tmr1.c: 163:     {;mcc_generated_files/timer/src/tmr1.c: 
      +                          164:         Timer1_OverflowCallback();
  2118     0086  0871               	movf	_Timer1_OverflowCallback+1,w
  2119     0087  008A               	movwf	10
  2120     0088  0870               	movf	_Timer1_OverflowCallback,w
  2121     0089  000A               	callw
  2122     008A  3180               	pagesel	$
  2123     008B                     i1l228:
  2124     008B  0008               	return
  2125     008C                     __end_of_Timer1_OverflowISR:
  2126                           
  2127                           	psect	text10
  2128     008C                     __ptext10:	
  2129 ;; *************** function _Timer1_Write *****************
  2130 ;; Defined at:
  2131 ;;		line 113 in file "mcc_generated_files/timer/src/tmr1.c"
  2132 ;; Parameters:    Size  Location     Type
  2133 ;;  timerVal        2    0[COMMON] unsigned int 
  2134 ;; Auto vars:     Size  Location     Type
  2135 ;;		None
  2136 ;; Return value:  Size  Location     Type
  2137 ;;                  1    wreg      void 
  2138 ;; Registers used:
  2139 ;;		wreg, status,2
  2140 ;; Tracked objects:
  2141 ;;		On entry : 0/0
  2142 ;;		On exit  : 0/0
  2143 ;;		Unchanged: 0/0
  2144 ;; Data sizes:     COMMON   BANK0   BANK1   BANK2   BANK3   BANK4   BANK5   BANK6
  2145 ;;      Params:         2       0       0       0       0       0       0       0
  2146 ;;      Locals:         0       0       0       0       0       0       0       0
  2147 ;;      Temps:          0       0       0       0       0       0       0       0
  2148 ;;      Totals:         2       0       0       0       0       0       0       0
  2149 ;;Total ram usage:        2 bytes
  2150 ;; Hardware stack levels used: 1
  2151 ;; This function calls:
  2152 ;;		Nothing
  2153 ;; This function is called by:
  2154 ;;		_Timer1_OverflowISR
  2155 ;;		_Timer1_Reload
  2156 ;; This function uses a non-reentrant model
  2157 ;;
  2158                           
  2159     008C                     _Timer1_Write:	
  2160                           ;psect for function _Timer1_Write
  2161                           
  2162     008C                     i1l934:	
  2163                           ;incstack = 0
  2164                           ; Regs used in _Timer1_Write: [wreg+status,2]
  2165                           
  2166                           
  2167                           ;mcc_generated_files/timer/src/tmr1.c: 113: void Timer1_Write(size_t timerVal);mcc_gener
      +                          ated_files/timer/src/tmr1.c: 114: {;mcc_generated_files/timer/src/tmr1.c: 115:     if (T
      +                          1CONbits.NOT_SYNC == 1)
  2168     008C  0144               	movlb	4	; select bank4
  2169     008D  1D0E               	btfss	14,2	;volatile
  2170     008E  2890               	goto	u10_21
  2171     008F  2891               	goto	u10_20
  2172     0090                     u10_21:
  2173     0090  2898               	goto	i1l944
  2174     0091                     u10_20:
  2175     0091                     i1l936:
  2176                           
  2177                           ;mcc_generated_files/timer/src/tmr1.c: 116:     {;mcc_generated_files/timer/src/tmr1.c: 
      +                          118:         T1CONbits.TMR1ON = 0;
  2178     0091  100E               	bcf	14,0	;volatile
  2179     0092                     i1l938:
  2180                           
  2181                           ;mcc_generated_files/timer/src/tmr1.c: 121:         TMR1H = (uint8_t)(timerVal >> 8);
  2182     0092  0879               	movf	Timer1_Write@timerVal+1,w
  2183     0093  008D               	movwf	13	;volatile
  2184     0094                     i1l940:
  2185                           
  2186                           ;mcc_generated_files/timer/src/tmr1.c: 122:         TMR1L = (uint8_t)timerVal;
  2187     0094  0878               	movf	Timer1_Write@timerVal,w
  2188     0095  008C               	movwf	12	;volatile
  2189     0096                     i1l942:
  2190                           
  2191                           ;mcc_generated_files/timer/src/tmr1.c: 125:         T1CONbits.TMR1ON = 1;
  2192     0096  140E               	bsf	14,0	;volatile
  2193                           
  2194                           ;mcc_generated_files/timer/src/tmr1.c: 126:     }
  2195     0097  289C               	goto	i1l212
  2196     0098                     i1l944:
  2197                           
  2198                           ;mcc_generated_files/timer/src/tmr1.c: 128:     {;mcc_generated_files/timer/src/tmr1.c: 
      +                          130:         TMR1H = (uint8_t)(timerVal >> 8);
  2199     0098  0879               	movf	Timer1_Write@timerVal+1,w
  2200     0099  008D               	movwf	13	;volatile
  2201     009A                     i1l946:
  2202                           
  2203                           ;mcc_generated_files/timer/src/tmr1.c: 131:         TMR1L = (uint8_t)timerVal;
  2204     009A  0878               	movf	Timer1_Write@timerVal,w
  2205     009B  008C               	movwf	12	;volatile
  2206     009C                     i1l212:
  2207     009C  0008               	return
  2208     009D                     __end_of_Timer1_Write:
  2209                           
  2210                           	psect	text11
  2211     00CA                     __ptext11:	
  2212 ;; *************** function _Timer1_DefaultOverflowCallback *****************
  2213 ;; Defined at:
  2214 ;;		line 173 in file "mcc_generated_files/timer/src/tmr1.c"
  2215 ;; Parameters:    Size  Location     Type
  2216 ;;		None
  2217 ;; Auto vars:     Size  Location     Type
  2218 ;;		None
  2219 ;; Return value:  Size  Location     Type
  2220 ;;                  1    wreg      void 
  2221 ;; Registers used:
  2222 ;;		None
  2223 ;; Tracked objects:
  2224 ;;		On entry : 0/0
  2225 ;;		On exit  : 0/0
  2226 ;;		Unchanged: 0/0
  2227 ;; Data sizes:     COMMON   BANK0   BANK1   BANK2   BANK3   BANK4   BANK5   BANK6
  2228 ;;      Params:         0       0       0       0       0       0       0       0
  2229 ;;      Locals:         0       0       0       0       0       0       0       0
  2230 ;;      Temps:          0       0       0       0       0       0       0       0
  2231 ;;      Totals:         0       0       0       0       0       0       0       0
  2232 ;;Total ram usage:        0 bytes
  2233 ;; Hardware stack levels used: 1
  2234 ;; This function calls:
  2235 ;;		Nothing
  2236 ;; This function is called by:
  2237 ;;		_Timer1_Initialize
  2238 ;;		_Timer1_OverflowISR
  2239 ;; This function uses a non-reentrant model
  2240 ;;
  2241                           
  2242     00CA                     _Timer1_DefaultOverflowCallback:	
  2243                           ;psect for function _Timer1_DefaultOverflowCallback
  2244                           
  2245     00CA                     i1l846:	
  2246                           ;incstack = 0
  2247                           ; Regs used in _Timer1_DefaultOverflowCallback: []
  2248                           
  2249                           
  2250                           ;mcc_generated_files/timer/src/tmr1.c: 175:     if(TRISAbits.TRISA2 == 1)
  2251     00CA  0140               	movlb	0	; select bank0
  2252     00CB  1D12               	btfss	18,2	;volatile
  2253     00CC  28CE               	goto	u2_21
  2254     00CD  28CF               	goto	u2_20
  2255     00CE                     u2_21:
  2256     00CE  28D1               	goto	i1l238
  2257     00CF                     u2_20:
  2258     00CF                     i1l235:	
  2259                           ;mcc_generated_files/timer/src/tmr1.c: 176:     {;mcc_generated_files/timer/src/tmr1.c: 
      +                          177:         do { TRISAbits.TRISA2 = 0; } while(0);
  2260                           
  2261     00CF  1112               	bcf	18,2	;volatile
  2262     00D0  28D2               	goto	i1l240
  2263     00D1                     i1l238:	
  2264                           ;mcc_generated_files/timer/src/tmr1.c: 180:     {;mcc_generated_files/timer/src/tmr1.c: 
      +                          181:         do { TRISAbits.TRISA2 = 1; } while(0);
  2265                           
  2266     00D1  1512               	bsf	18,2	;volatile
  2267     00D2                     i1l240:
  2268     00D2  0008               	return
  2269     00D3                     __end_of_Timer1_DefaultOverflowCallback:
  2270                           
  2271                           	psect	text12
  2272     00E5                     __ptext12:	
  2273 ;; *************** function _PIN_MANAGER_IOC *****************
  2274 ;; Defined at:
  2275 ;;		line 113 in file "mcc_generated_files/system/src/pins.c"
  2276 ;; Parameters:    Size  Location     Type
  2277 ;;		None
  2278 ;; Auto vars:     Size  Location     Type
  2279 ;;		None
  2280 ;; Return value:  Size  Location     Type
  2281 ;;                  1    wreg      void 
  2282 ;; Registers used:
  2283 ;;		None
  2284 ;; Tracked objects:
  2285 ;;		On entry : 0/0
  2286 ;;		On exit  : 0/0
  2287 ;;		Unchanged: 0/0
  2288 ;; Data sizes:     COMMON   BANK0   BANK1   BANK2   BANK3   BANK4   BANK5   BANK6
  2289 ;;      Params:         0       0       0       0       0       0       0       0
  2290 ;;      Locals:         0       0       0       0       0       0       0       0
  2291 ;;      Temps:          0       0       0       0       0       0       0       0
  2292 ;;      Totals:         0       0       0       0       0       0       0       0
  2293 ;;Total ram usage:        0 bytes
  2294 ;; Hardware stack levels used: 1
  2295 ;; This function calls:
  2296 ;;		Nothing
  2297 ;; This function is called by:
  2298 ;;		_INTERRUPT_InterruptManager
  2299 ;; This function uses a non-reentrant model
  2300 ;;
  2301                           
  2302     00E5                     _PIN_MANAGER_IOC:	
  2303                           ;psect for function _PIN_MANAGER_IOC
  2304                           
  2305     00E5                     i1l151:	
  2306                           ;incstack = 0
  2307                           ; Regs used in _PIN_MANAGER_IOC: []
  2308                           
  2309     00E5  0008               	return
  2310     00E6                     __end_of_PIN_MANAGER_IOC:
  2311     007E                     btemp	set	126	;btemp
  2312     007E                     int$flags	set	126
  2313     007E                     wtemp0	set	126
  2314                           
  2315                           	psect	config
  2316                           
  2317                           ;Config register CONFIG1 @ 0x8007
  2318                           ;	External Oscillator Mode Selection bits
  2319                           ;	FEXTOSC = OFF, Oscillator not enabled
  2320                           ;	Power-up Default Value for COSC bits
  2321                           ;	RSTOSC = HFINTOSC_1MHZ, HFINTOSC (1 MHz)
  2322                           ;	Clock Out Enable bit
  2323                           ;	CLKOUTEN = OFF, CLKOUT function is disabled; I/O function on RA4
  2324                           ;	VDD Range Analog Calibration Selection bit
  2325                           ;	VDDAR = HI, Internal analog systems are calibrated for operation between VDD = 2.3V - 
      +                          5.5V
  2326     8007                     	org	32775
  2327     8007  3FED               	dw	16365
  2328                           
  2329                           ;Config register CONFIG2 @ 0x8008
  2330                           ;	Master Clear Enable bit
  2331                           ;	MCLRE = EXTMCLR, If LVP = 0, MCLR pin is MCLR; If LVP = 1, RA3 pin function is MCLR
  2332                           ;	Power-up Timer Selection bits
  2333                           ;	PWRTS = PWRT_OFF, PWRT is disabled
  2334                           ;	WDT Operating Mode bits
  2335                           ;	WDTE = OFF, WDT disabled; SEN is ignored
  2336                           ;	Brown-out Reset Enable bits
  2337                           ;	BOREN = ON, Brown-out Reset Enabled, SBOREN bit is ignored
  2338                           ;	Brown-out Reset Voltage Selection bit
  2339                           ;	BORV = LO, Brown-out Reset Voltage (VBOR) set to 1.9V
  2340                           ;	PPSLOCKED One-Way Set Enable bit
  2341                           ;	PPS1WAY = ON, The PPSLOCKED bit can be set once after an unlocking sequence is execute
      +                          d; once PPSLOCKED is set, all future changes to PPS registers are prevented
  2342                           ;	Stack Overflow/Underflow Reset Enable bit
  2343                           ;	STVREN = ON, Stack Overflow or Underflow will cause a reset
  2344     8008                     	org	32776
  2345     8008  3FE7               	dw	16359
  2346                           
  2347                           ;Config register CONFIG4 @ 0x800A
  2348                           ;	Boot Block Size Selection bits
  2349                           ;	BBSIZE = BB512, 512 words boot block size
  2350                           ;	Boot Block Enable bit
  2351                           ;	BBEN = OFF, Boot Block is disabled
  2352                           ;	SAF Enable bit
  2353                           ;	SAFEN = OFF, SAF is disabled
  2354                           ;	Application Block Write Protection bit
  2355                           ;	WRTAPP = OFF, Application Block is not write-protected
  2356                           ;	Boot Block Write Protection bit
  2357                           ;	WRTB = OFF, Boot Block is not write-protected
  2358                           ;	Configuration Registers Write Protection bit
  2359                           ;	WRTC = OFF, Configuration Registers are not write-protected
  2360                           ;	Storage Area Flash (SAF) Write Protection bit
  2361                           ;	WRTSAF = OFF, SAF is not write-protected
  2362                           ;	Low Voltage Programming Enable bit
  2363                           ;	LVP = ON, Low Voltage programming enabled. MCLR/Vpp pin function is MCLR. MCLRE Config
      +                          uration bit is ignored.
  2364     800A                     	org	32778
  2365     800A  3FFF               	dw	16383
  2366                           
  2367                           ;Config register CONFIG5 @ 0x800B
  2368                           ;	User Program Flash Memory Code Protection bit
  2369                           ;	CP = OFF, User Program Flash Memory code protection is disabled
  2370     800B                     	org	32779
  2371     800B  3FFF               	dw	16383

Data Sizes:
    Strings     0
    Constant    12
    Data        0
    BSS         4
    Persistent  36
    Stack       0

Auto Spaces:
    Space          Size  Autos    Used
    COMMON           14      4      12
    BANK0            80      0       0
    BANK1            80      0       0
    BANK2            80      0       0
    BANK3            80      0       0
    BANK4            80      0       0
    BANK5            80      0       0
    BANK6            16      0       0

Pointer List with Targets:

    S250$4$0	PTR FTN()void  size(2) Largest target is 1
		 -> Timer1_DefaultOverflowCallback(), 

    Timer1_InterruptHandler	PTR FTN()void  size(2) Largest target is 1
		 -> NULL(), 

    Timer1_OverflowCallbackRegister@CallbackHandler	PTR FTN()void  size(2) Largest target is 1
		 -> Timer1_DefaultOverflowCallback(), 

    Timer1_OverflowCallback	PTR FTN()void  size(2) Largest target is 1
		 -> Timer1_DefaultOverflowCallback(), NULL(), 

    S250TMR_INTERFACE$Tasks	PTR FTN()void  size(2) Largest target is 1
		 -> NULL(), 

    Timer1.Tasks	PTR FTN()void  size(2) Largest target is 1
		 -> NULL(), 

    S250TMR_INTERFACE$TimeoutCallbackRegister	PTR FTN(PTR FTN()void ,)void  size(2) Largest target is 1
		 -> Timer1_OverflowCallbackRegister(), 

    Timer1.TimeoutCallbackRegister	PTR FTN(PTR FTN()void ,)void  size(2) Largest target is 1
		 -> Timer1_OverflowCallbackRegister(), 

    S250TMR_INTERFACE$PeriodCountSet	PTR FTN(unsigned int ,)void  size(2) Largest target is 1
		 -> Timer1_PeriodCountSet(), 

    Timer1.PeriodCountSet	PTR FTN(unsigned int ,)void  size(2) Largest target is 1
		 -> Timer1_PeriodCountSet(), 

    S250TMR_INTERFACE$Stop	PTR FTN()void  size(2) Largest target is 1
		 -> Timer1_Stop(), 

    Timer1.Stop	PTR FTN()void  size(2) Largest target is 1
		 -> Timer1_Stop(), 

    S250TMR_INTERFACE$Start	PTR FTN()void  size(2) Largest target is 1
		 -> Timer1_Start(), 

    Timer1.Start	PTR FTN()void  size(2) Largest target is 1
		 -> Timer1_Start(), 

    S250TMR_INTERFACE$Initialize	PTR FTN()void  size(2) Largest target is 1
		 -> Timer1_Initialize(), 

    Timer1.Initialize	PTR FTN()void  size(2) Largest target is 1
		 -> Timer1_Initialize(), 

    INT_SetInterruptHandler@InterruptHandler	PTR FTN()void  size(2) Largest target is 1
		 -> INT_DefaultInterruptHandler(), 

    INT_InterruptHandler	PTR FTN()void  size(2) Largest target is 1
		 -> NULL(), INT_DefaultInterruptHandler(), 


Critical Paths under _main in COMMON

    _Timer1_Initialize->_Timer1_OverflowCallbackRegister
    _INTERRUPT_Initialize->_INT_SetInterruptHandler

Critical Paths under _INTERRUPT_InterruptManager in COMMON

    _Timer1_OverflowISR->_Timer1_Write

Critical Paths under _main in BANK0

    None.

Critical Paths under _INTERRUPT_InterruptManager in BANK0

    None.

Critical Paths under _main in BANK1

    None.

Critical Paths under _INTERRUPT_InterruptManager in BANK1

    None.

Critical Paths under _main in BANK2

    None.

Critical Paths under _INTERRUPT_InterruptManager in BANK2

    None.

Critical Paths under _main in BANK3

    None.

Critical Paths under _INTERRUPT_InterruptManager in BANK3

    None.

Critical Paths under _main in BANK4

    None.

Critical Paths under _INTERRUPT_InterruptManager in BANK4

    None.

Critical Paths under _main in BANK5

    None.

Critical Paths under _INTERRUPT_InterruptManager in BANK5

    None.

Critical Paths under _main in BANK6

    None.

Critical Paths under _INTERRUPT_InterruptManager in BANK6

    None.

Call Graph Tables:

 ---------------------------------------------------------------------------------
 (Depth) Function   	        Calls       Base Space   Used Autos Params    Refs
 ---------------------------------------------------------------------------------
 (0) _main                                                 0     0      0     196
                  _SYSTEM_Initialize
 ---------------------------------------------------------------------------------
 (1) _SYSTEM_Initialize                                    0     0      0     196
                   _CLOCK_Initialize
               _INTERRUPT_Initialize
             _PIN_MANAGER_Initialize
                  _Timer1_Initialize
 ---------------------------------------------------------------------------------
 (2) _Timer1_Initialize                                    0     0      0      98
    _Timer1_OverflowCallbackRegister
 ---------------------------------------------------------------------------------
 (3) _Timer1_OverflowCallbackRegister                      2     0      2      98
                                              2 COMMON     2     0      2
 ---------------------------------------------------------------------------------
 (2) _PIN_MANAGER_Initialize                               0     0      0       0
 ---------------------------------------------------------------------------------
 (2) _INTERRUPT_Initialize                                 0     0      0      98
            _INT_SetInterruptHandler
 ---------------------------------------------------------------------------------
 (3) _INT_SetInterruptHandler                              2     0      2      98
                                              2 COMMON     2     0      2
 ---------------------------------------------------------------------------------
 (2) _CLOCK_Initialize                                     0     0      0       0
 ---------------------------------------------------------------------------------
 Estimated maximum stack depth 3
 ---------------------------------------------------------------------------------
 (Depth) Function   	        Calls       Base Space   Used Autos Params    Refs
 ---------------------------------------------------------------------------------
 (4) _INTERRUPT_InterruptManager                           0     0      0     240
                    _PIN_MANAGER_IOC
                 _Timer1_OverflowISR
 ---------------------------------------------------------------------------------
 (5) _Timer1_OverflowISR                                   0     0      0     240
                                NULL *
     _Timer1_DefaultOverflowCallback *
                       _Timer1_Write
 ---------------------------------------------------------------------------------
 (6) _Timer1_Write                                         2     0      2     240
                                              0 COMMON     2     0      2
 ---------------------------------------------------------------------------------
 (6) _Timer1_DefaultOverflowCallback                       0     0      0       0
 ---------------------------------------------------------------------------------
 (6) NULL(Fake)                                            0     0      0       0
 ---------------------------------------------------------------------------------
 (5) _PIN_MANAGER_IOC                                      0     0      0       0
 ---------------------------------------------------------------------------------
 Estimated maximum stack depth 6
 ---------------------------------------------------------------------------------

 Call Graph Graphs:

 _main (ROOT)
   _SYSTEM_Initialize
     _CLOCK_Initialize
     _INTERRUPT_Initialize
       _INT_SetInterruptHandler
     _PIN_MANAGER_Initialize
     _Timer1_Initialize
       _Timer1_OverflowCallbackRegister

 _INTERRUPT_InterruptManager (ROOT)
   _PIN_MANAGER_IOC
   _Timer1_OverflowISR
     NULL(Fake) *
     _Timer1_DefaultOverflowCallback *
     _Timer1_Write *

 Address spaces:
Name               Size   Autos  Total    Cost      Usage
BIGRAM             1F0      0       0       0        0.0%
NULL                 0      0       0       0        0.0%
CODE                 0      0       0       0        0.0%
BITCOMMON            E      0       0       1        0.0%
BITSFR0              0      0       0       1        0.0%
SFR0                 0      0       0       1        0.0%
COMMON               E      4       C       2       85.7%
BITSFR1              0      0       0       2        0.0%
SFR1                 0      0       0       2        0.0%
BITSFR2              0      0       0       3        0.0%
SFR2                 0      0       0       3        0.0%
STACK                0      0       0       3        0.0%
BITSFR3              0      0       0       4        0.0%
SFR3                 0      0       0       4        0.0%
ABS                  0      0       C       4        0.0%
BITBANK0            50      0       0       5        0.0%
BITSFR4              0      0       0       5        0.0%
SFR4                 0      0       0       5        0.0%
BANK0               50      0       0       6        0.0%
BITSFR5              0      0       0       6        0.0%
SFR5                 0      0       0       6        0.0%
BITBANK1            50      0       0       7        0.0%
BITSFR6              0      0       0       7        0.0%
SFR6                 0      0       0       7        0.0%
BANK1               50      0       0       8        0.0%
BITSFR7              0      0       0       8        0.0%
SFR7                 0      0       0       8        0.0%
BITBANK2            50      0       0       9        0.0%
BITSFR8              0      0       0       9        0.0%
SFR8                 0      0       0       9        0.0%
BANK2               50      0       0      10        0.0%
BITSFR9              0      0       0      10        0.0%
SFR9                 0      0       0      10        0.0%
BITBANK3            50      0       0      11        0.0%
BITSFR10             0      0       0      11        0.0%
SFR10                0      0       0      11        0.0%
BANK3               50      0       0      12        0.0%
BITSFR11             0      0       0      12        0.0%
SFR11                0      0       0      12        0.0%
BITBANK4            50      0       0      13        0.0%
BITSFR12             0      0       0      13        0.0%
SFR12                0      0       0      13        0.0%
BANK4               50      0       0      14        0.0%
BITSFR13             0      0       0      14        0.0%
SFR13                0      0       0      14        0.0%
BITBANK5            50      0       0      15        0.0%
BITSFR14             0      0       0      15        0.0%
SFR14                0      0       0      15        0.0%
BANK5               50      0       0      16        0.0%
BITSFR15             0      0       0      16        0.0%
SFR15                0      0       0      16        0.0%
BITBANK6            10      0       0      17        0.0%
BITSFR16             0      0       0      17        0.0%
SFR16                0      0       0      17        0.0%
BANK6               10      0       0      18        0.0%
BITSFR17             0      0       0      18        0.0%
SFR17                0      0       0      18        0.0%
BITSFR18             0      0       0      19        0.0%
SFR18                0      0       0      19        0.0%
DATA                 0      0       C      19        0.0%
BITSFR19             0      0       0      20        0.0%
SFR19                0      0       0      20        0.0%
BITSFR20             0      0       0      21        0.0%
SFR20                0      0       0      21        0.0%
BITSFR21             0      0       0      22        0.0%
SFR21                0      0       0      22        0.0%
BITSFR22             0      0       0      23        0.0%
SFR22                0      0       0      23        0.0%
BITSFR23             0      0       0      24        0.0%
SFR23                0      0       0      24        0.0%
BITSFR24             0      0       0      25        0.0%
SFR24                0      0       0      25        0.0%
BITSFR25             0      0       0      26        0.0%
SFR25                0      0       0      26        0.0%
BITSFR26             0      0       0      27        0.0%
SFR26                0      0       0      27        0.0%
BITSFR27             0      0       0      28        0.0%
SFR27                0      0       0      28        0.0%
BITSFR28             0      0       0      29        0.0%
SFR28                0      0       0      29        0.0%
BITSFR29             0      0       0      30        0.0%
SFR29                0      0       0      30        0.0%
BITSFR30             0      0       0      31        0.0%
SFR30                0      0       0      31        0.0%
BITSFR31             0      0       0      32        0.0%
SFR31                0      0       0      32        0.0%
BITSFR32             0      0       0      33        0.0%
SFR32                0      0       0      33        0.0%
BITSFR33             0      0       0      34        0.0%
SFR33                0      0       0      34        0.0%
BITSFR34             0      0       0      35        0.0%
SFR34                0      0       0      35        0.0%
BITSFR35             0      0       0      36        0.0%
SFR35                0      0       0      36        0.0%
BITSFR36             0      0       0      37        0.0%
SFR36                0      0       0      37        0.0%
BITSFR37             0      0       0      38        0.0%
SFR37                0      0       0      38        0.0%
BITSFR38             0      0       0      39        0.0%
SFR38                0      0       0      39        0.0%
BITSFR39             0      0       0      40        0.0%
SFR39                0      0       0      40        0.0%
BITSFR40             0      0       0      41        0.0%
SFR40                0      0       0      41        0.0%
BITSFR41             0      0       0      42        0.0%
SFR41                0      0       0      42        0.0%
BITSFR42             0      0       0      43        0.0%
SFR42                0      0       0      43        0.0%
BITSFR43             0      0       0      44        0.0%
SFR43                0      0       0      44        0.0%
BITSFR44             0      0       0      45        0.0%
SFR44                0      0       0      45        0.0%
BITSFR45             0      0       0      46        0.0%
SFR45                0      0       0      46        0.0%
BITSFR46             0      0       0      47        0.0%
SFR46                0      0       0      47        0.0%
BITSFR47             0      0       0      48        0.0%
SFR47                0      0       0      48        0.0%
BITSFR48             0      0       0      49        0.0%
SFR48                0      0       0      49        0.0%
BITSFR49             0      0       0      50        0.0%
SFR49                0      0       0      50        0.0%
BITSFR50             0      0       0      51        0.0%
SFR50                0      0       0      51        0.0%
BITSFR51             0      0       0      52        0.0%
SFR51                0      0       0      52        0.0%
BITSFR52             0      0       0      53        0.0%
SFR52                0      0       0      53        0.0%
BITSFR53             0      0       0      54        0.0%
SFR53                0      0       0      54        0.0%
BITSFR54             0      0       0      55        0.0%
SFR54                0      0       0      55        0.0%
BITSFR55             0      0       0      56        0.0%
SFR55                0      0       0      56        0.0%
BITSFR56             0      0       0      57        0.0%
SFR56                0      0       0      57        0.0%
BITSFR57             0      0       0      58        0.0%
SFR57                0      0       0      58        0.0%
BITSFR58             0      0       0      59        0.0%
SFR58                0      0       0      59        0.0%
BITSFR59             0      0       0      60        0.0%
SFR59                0      0       0      60        0.0%
BITSFR60             0      0       0      61        0.0%
SFR60                0      0       0      61        0.0%
BITSFR61             0      0       0      62        0.0%
SFR61                0      0       0      62        0.0%
BITSFR62             0      0       0      63        0.0%
SFR62                0      0       0      63        0.0%
BITSFR63             0      0       0      64        0.0%
SFR63                0      0       0      64        0.0%


Microchip Technology PIC Macro Assembler V2.41 build 20230208172133 
Symbol Table                                                                                   Tue May 23 10:28:54 2023

                                            l25 00C0                                              l60 00A9  
                                            l46 00E4                                              l73 00C9  
                                            l82 00D8                                              l83 00D8  
                                           l231 00DF                                             l148 005B  
                                           l198 0076                                             l800 003E  
                                           l810 004E                                             l802 0046  
                                           l812 0050                                             l804 0048  
                                           l806 004A                                             l910 00DB  
                                           l912 00B6                                             l808 004C  
                                           l920 0061                                             l914 00B9  
                                           l930 0072                                             l922 0063  
                                           l780 00C1                                             l908 00E0  
                                           l932 0073                                             l924 0065  
                                           l916 005C                                             l782 00C6  
                                           l790 0033                                             l926 0069  
                                           l918 005F                                             l784 00C7  
                                           l792 0035                                             l928 0070  
                                           l786 00C8                                             l794 0037  
                                           l970 00D3                                             l796 0039  
                                           l788 002F                                             l956 009D  
                                           l972 00D6                                             l798 003C  
                                           l974 00D7                                 _timer1ReloadVal 0076  
                            _Timer1_OverflowISR 0077          __end_of_Timer1_DefaultOverflowCallback 00D3  
                _Timer1_DefaultOverflowCallback 00CA                                            _LATA 0018  
                                          _LATB 0019                                            _LATC 001A  
                                          i1l30 0013                                            i1l35 0023  
                                          i1l36 0023                                            _WPUA 1F39  
                                          _WPUB 1F44                                            _WPUC 1F4F  
                                          u2_20 00CF                                            u2_21 00CE  
                           ?_Timer1_OverflowISR 0078                                            _main 00D3  
                                          btemp 007E                     _INT_DefaultInterruptHandler 0000  
                                          start 0025                 __end_of_INT_SetInterruptHandler 00E5  
                       _Timer1_OverflowCallback 0070                            ??_Timer1_OverflowISR 007A  
                                         ?_main 0078                                           _T1CLK 0211  
                                         _T1CON 020E                                           _IOCAF 1F3F  
                                         _IOCBF 1F4A                                           _IOCCF 1F55  
                                         _IOCAN 1F3E                                           _IOCAP 1F3D  
                                         _IOCBN 1F49                                           _IOCBP 1F48  
                                         _IOCCN 1F54                                           _IOCCP 1F53  
                                         i1l212 009C                                           i1l151 00E5  
                                         i1l240 00D2                                           i1l235 00CF  
                                         i1l228 008B                                           i1l238 00D1  
                                         i1l940 0094                                           i1l846 00CA  
                                         i1l942 0096                                           i1l934 008C  
                                         i1l950 0079                                           i1l936 0091  
                                         i1l944 0098                                           i1l952 0080  
                                         i1l960 000B                                           i1l946 009A  
                                         i1l938 0092                                           i1l954 0086  
                                         i1l962 000F                                           i1l948 0077  
                                         i1l964 0017                                           i1l966 001B  
                                         i1l958 0006                                           i1l968 001F  
                                         u10_20 0091                                           u10_21 0090  
                                         u11_20 0086                                           u11_21 0085  
                                         _OSCEN 0891                                           u12_20 000B  
                                         u12_21 000A                                           u13_20 000F  
                                         u13_21 000E                                           u14_20 0017  
                                         u14_21 0016                                           u15_20 001B  
                                         u15_21 001A                                           u16_20 001F  
                                         u16_21 001E                                           _TMR1H 020D  
                                         _TMR1L 020C                                           _TRISA 0012  
                                         _TRISB 0013                                           _TRISC 0014  
                       __end_of_PIN_MANAGER_IOC 00E6                                           pclath 000A  
                                         status 0003                                           wtemp0 007E  
                               __initialization 0027                                    __end_of_main 00DB  
                   ?_INTERRUPT_InterruptManager 0078                                          ??_main 007C  
                                        _ANSELA 1F38                                          _ANSELB 1F43  
                                        _ANSELC 1F4E                                          _T1GATE 0210  
                                        _T1GCON 020F                                          _ODCONA 1F3A  
                                        _ODCONB 1F45                                          _ODCONC 1F50  
                                        _INLVLA 1F3C                                          _INLVLB 1F47  
                                        _INLVLC 1F52                                          _OSCCON 088E  
                                        _OSCFRQ 0893                                          _Timer1 00AA  
                             ?_CLOCK_Initialize 0078                              ??_CLOCK_Initialize 007A  
       INT_SetInterruptHandler@InterruptHandler 007A                                ?_PIN_MANAGER_IOC 0078  
                             _SYSTEM_Initialize 009D                         __end_of__initialization 002B  
                            ?_SYSTEM_Initialize 0078                                  __pcstackCOMMON 0078  
                           ??_SYSTEM_Initialize 007C                       __end_of_SYSTEM_Initialize 00AA  
                                    __pnvCOMMON 0070                                   ?_Timer1_Write 0078  
                                    __pmaintext 00D3                                      __pintentry 0004  
                                       _OSCSTAT 0890                                         _OSCTUNE 0892  
                                       _SLRCONA 1F3B                                         _SLRCONB 1F46  
                                       _SLRCONC 1F51                                  ??_Timer1_Write 007A  
                                   _Timer1_Stop 0000                         _Timer1_InterruptHandler 0074  
                                       __ptext1 009D                                         __ptext2 005C  
                                       __ptext3 00DB                                         __ptext4 002F  
                                       __ptext5 00B6                                         __ptext6 00E0  
                                       __ptext7 00C1                                         __ptext9 0077  
                                     _T1CONbits 020E                        ??_PIN_MANAGER_Initialize 007A  
                       _INT_SetInterruptHandler 00E0                               _Timer1_Initialize 005C  
                          end_of_initialization 002B                              ?_Timer1_Initialize 0078  
                           ??_Timer1_Initialize 007C  Timer1_OverflowCallbackRegister@CallbackHandler 007A  
                                     _TRISAbits 0012                       __end_of_Timer1_Initialize 0077  
                         _Timer1_PeriodCountSet 0000                                  __end_of_Timer1 00B6  
                  __end_of_INTERRUPT_Initialize 00C1                       ??_INT_SetInterruptHandler 007C  
                           start_initialization 0027                            __end_of_Timer1_Write 009D  
                                   __pbssCOMMON 0074                                       ___latbits 0001  
                          Timer1_Write@timerVal 0078                          _PIN_MANAGER_Initialize 002F  
                  ??_INTERRUPT_InterruptManager 007A                            _INTERRUPT_Initialize 00B6  
                              _CLOCK_Initialize 00C1                                        _PIE0bits 0716  
                                      _PIE1bits 0717                                        _PIR0bits 070C  
                                      _PIR1bits 070D                                        _PIR2bits 070E  
                    __end_of_Timer1_OverflowISR 008C                ??_Timer1_DefaultOverflowCallback 0078  
               ?_Timer1_DefaultOverflowCallback 0078                               ??_PIN_MANAGER_IOC 0078  
                         ?_INTERRUPT_Initialize 0078                                    _Timer1_Start 0000  
                                  _Timer1_Write 008C                                        __ptext10 008C  
                                      __ptext11 00CA                                        __ptext12 00E5  
                                    _T1GCONbits 020F                                        int$flags 007E  
            __end_of_INTERRUPT_InterruptManager 0025                      _INTERRUPT_InterruptManager 0004  
                                    _INTCONbits 000B                            _INT_InterruptHandler 0072  
                        ??_INTERRUPT_Initialize 007C                                        intlevel1 0000  
                       ?_PIN_MANAGER_Initialize 0078         __end_of_Timer1_OverflowCallbackRegister 00E0  
             ??_Timer1_OverflowCallbackRegister 007C                ?_Timer1_OverflowCallbackRegister 007A  
               _Timer1_OverflowCallbackRegister 00DB                        ?_INT_SetInterruptHandler 007A  
                      __end_of_CLOCK_Initialize 00CA                                   __pstringtext1 00AA  
                __end_of_PIN_MANAGER_Initialize 005C                                 _PIN_MANAGER_IOC 00E5  
